
; ModuleID = 'unimpl.cpp'
source_filename = "unimpl.cpp"
target datalayout = "e-m:w-p270:32:32-p271:32:32-p272:64:64-i64:64-f80:128-n8:16:32:64-S128"
target triple = "x86_64-pc-windows-msvc19.11.0"     

declare dso_local void @abort() #1
   
        
; Function Attrs: noinline optnone uwtable
define weak dso_local void @"dyld_shared_cache_extract_dylibs_progress"() #0 {
;  call void @abort()
  ret void
}

; Function Attrs: noinline optnone uwtable
define weak dso_local void @"__imp_str2ld"() #0 {
;  call void @abort()
  ret void
}
                
; Function Attrs: noinline optnone uwtable
define weak dso_local void @"__imp__NSConcreteGlobalBlock"() #0 {
;  call void @abort()
  ret void
}
                
; Function Attrs: noinline optnone uwtable
define weak dso_local void @"??0Zydis@@QEAA@XZ"() #0 {
;  call void @abort()
  ret void
}
                
; Function Attrs: noinline optnone uwtable
define weak dso_local void @"?Disassemble@Zydis@@QEAA_N_KPEBEH@Z"() #0 {
;  call void @abort()
  ret void
}
                
; Function Attrs: noinline optnone uwtable
define weak dso_local void @"?IsBranchType@Zydis@@QEBA_NZZ"() #0 {
;  call void @abort()
  ret void
}
                
; Function Attrs: noinline optnone uwtable
define weak dso_local void @"?IsBranchGoingToExecute@Zydis@@QEBA_N_K0@Z"() #0 {
;  call void @abort()
  ret void
}
                
; Function Attrs: noinline optnone uwtable
define weak dso_local void @"?OpCount@Zydis@@QEBAHXZ"() #0 {
;  call void @abort()
  ret void
}
                
; Function Attrs: noinline optnone uwtable
define weak dso_local void @"?ResolveOpValue@Zydis@@QEBA_KHAEBV?$function@$$A6A_KW4ZydisRegister@@@Z@std@@@Z"() #0 {
;  call void @abort()
  ret void
}
                
; Function Attrs: noinline optnone uwtable
define weak dso_local void @"??AZydis@@QEBAAEBUZydisDecodedOperand@@H@Z"() #0 {
;  call void @abort()
  ret void
}
                
; Function Attrs: noinline optnone uwtable
define weak dso_local void @"?MemSizeName@Zydis@@QEBAPEBDH@Z"() #0 {
;  call void @abort()
  ret void
}
                
; Function Attrs: noinline optnone uwtable
define weak dso_local void @"?RegName@Zydis@@QEBAPEBDW4ZydisRegister@@@Z"() #0 {
;  call void @abort()
  ret void
}
                
; Function Attrs: noinline optnone uwtable
define weak dso_local void @"??1Zydis@@QEAA@XZ"() #0 {
;  call void @abort()
  ret void
}
                
; Function Attrs: noinline optnone uwtable
define weak dso_local void @"?GlobalInitialize@Zydis@@SAXXZ"() #0 {
;  call void @abort()
  ret void
}
                
; Function Attrs: noinline optnone uwtable
define weak dso_local void @"?DisassembleSafe@Zydis@@QEAA_N_KPEBEH@Z"() #0 {
;  call void @abort()
  ret void
}
                
; Function Attrs: noinline optnone uwtable
define weak dso_local void @"?Size@Zydis@@QEBAHXZ"() #0 {
;  call void @abort()
  ret void
}
                
; Function Attrs: noinline optnone uwtable
define weak dso_local void @"?IsNop@Zydis@@QEBA_NXZ"() #0 {
;  call void @abort()
  ret void
}
                
; Function Attrs: noinline optnone uwtable
define weak dso_local void @"?GetInstr@Zydis@@QEBAPEBUZydisDecodedInstruction@@XZ"() #0 {
;  call void @abort()
  ret void
}
                
; Function Attrs: noinline optnone uwtable
define weak dso_local void @"?Mnemonic@Zydis@@QEBA?AV?$basic_string@DU?$char_traits@D@std@@V?$allocator@D@2@@std@@XZ"() #0 {
;  call void @abort()
  ret void
}
                
; Function Attrs: noinline optnone uwtable
define weak dso_local void @"?IsUnusual@Zydis@@QEBA_NXZ"() #0 {
;  call void @abort()
  ret void
}
                
; Function Attrs: noinline optnone uwtable
define weak dso_local void @"?IsPushPop@Zydis@@QEBA_NXZ"() #0 {
;  call void @abort()
  ret void
}
                
; Function Attrs: noinline optnone uwtable
define weak dso_local void @"?Address@Zydis@@QEBA_KXZ"() #0 {
;  call void @abort()
  ret void
}
                
; Function Attrs: noinline optnone uwtable
define weak dso_local void @"__imp_PlaySoundA"() #0 {
;  call void @abort()
  ret void
}
                
; Function Attrs: noinline optnone uwtable
define weak dso_local void @"?Disassemble@Zydis@@QEAA_N_KQEBE@Z"() #0 {
;  call void @abort()
  ret void
}
                
; Function Attrs: noinline optnone uwtable
define weak dso_local void @"?InstructionText@Zydis@@QEBA?AV?$basic_string@DU?$char_traits@D@std@@V?$allocator@D@2@@std@@_N@Z"() #0 {
;  call void @abort()
  ret void
}
                
; Function Attrs: noinline optnone uwtable
define weak dso_local void @"?openEditor@EditorManager@Core@@SAPEAVIEditor@2@AEBVQString@@VId@Utils@@V?$QFlags@W4OpenEditorFlag@EditorManager@Core@@@@PEA_N@Z"() #0 {
;  call void @abort()
  ret void
}
                
; Function Attrs: noinline optnone uwtable
define weak dso_local void @"??0RegisterPostMortemAction@Internal@Debugger@@QEAA@PEAVQObject@@@Z"() #0 {
;  call void @abort()
  ret void
}
                
; Function Attrs: noinline optnone uwtable
define weak dso_local void @"?kit@KitManager@ProjectExplorer@@SAPEAVKit@2@VId@Utils@@@Z"() #0 {
;  call void @abort()
  ret void
}
                
; Function Attrs: noinline optnone uwtable
define weak dso_local void @"?extensionLibraryName@CdbEngine@Internal@Debugger@@SA?AVQString@@_N@Z"() #0 {
;  call void @abort()
  ret void
}
                
; Function Attrs: noinline optnone uwtable
define weak dso_local void @"?currentTextEditor@BaseTextEditor@TextEditor@@SAPEAV12@XZ"() #0 {
;  call void @abort()
  ret void
}
                
; Function Attrs: noinline optnone uwtable
define weak dso_local void @"?textDocument@BaseTextEditor@TextEditor@@QEBAPEAVTextDocument@2@XZ"() #0 {
;  call void @abort()
  ret void
}
                
; Function Attrs: noinline optnone uwtable
define weak dso_local void @"?textCursor@BaseTextEditor@TextEditor@@QEBA?AVQTextCursor@@XZ"() #0 {
;  call void @abort()
  ret void
}
                
; Function Attrs: noinline optnone uwtable
define weak dso_local void @"?editorWidget@BaseTextEditor@TextEditor@@QEBAPEAVTextEditorWidget@2@XZ"() #0 {
;  call void @abort()
  ret void
}
                
; Function Attrs: noinline optnone uwtable
define weak dso_local void @"?closeDocuments@EditorManager@Core@@SA_NAEBV?$QList@PEAVIDocument@Core@@@@_N@Z"() #0 {
;  call void @abort()
  ret void
}
                
; Function Attrs: noinline optnone uwtable
define weak dso_local void @"??0KitAspect@ProjectExplorer@@IEAA@XZ"() #0 {
;  call void @abort()
  ret void
}
                
; Function Attrs: noinline optnone uwtable
define weak dso_local void @"??1KitAspect@ProjectExplorer@@MEAA@XZ"() #0 {
;  call void @abort()
  ret void
}
                
; Function Attrs: noinline optnone uwtable
define weak dso_local void @"??0KitAspectWidget@ProjectExplorer@@QEAA@PEAVKit@1@PEBVKitAspect@1@@Z"() #0 {
;  call void @abort()
  ret void
}
                
; Function Attrs: noinline optnone uwtable
define weak dso_local void @"?msgManage@KitAspectWidget@ProjectExplorer@@SA?AVQString@@XZ"() #0 {
;  call void @abort()
  ret void
}
                
; Function Attrs: noinline optnone uwtable
define weak dso_local void @"?weight@KitAspect@ProjectExplorer@@UEBAHPEBVKit@2@@Z"() #0 {
;  call void @abort()
  ret void
}
                
; Function Attrs: noinline optnone uwtable
define weak dso_local void @"?addToEnvironment@KitAspect@ProjectExplorer@@UEBAXPEBVKit@2@AEAVEnvironment@Utils@@@Z"() #0 {
;  call void @abort()
  ret void
}
                
; Function Attrs: noinline optnone uwtable
define weak dso_local void @"?createOutputParsers@KitAspect@ProjectExplorer@@UEBA?AV?$QList@PEAVOutputLineParser@Utils@@@@PEBVKit@2@@Z"() #0 {
;  call void @abort()
  ret void
}
                
; Function Attrs: noinline optnone uwtable
define weak dso_local void @"?displayNamePostfix@KitAspect@ProjectExplorer@@UEBA?AVQString@@PEBVKit@2@@Z"() #0 {
;  call void @abort()
  ret void
}
                
; Function Attrs: noinline optnone uwtable
define weak dso_local void @"?supportedPlatforms@KitAspect@ProjectExplorer@@UEBA?AV?$QSet@VId@Utils@@@@PEBVKit@2@@Z"() #0 {
;  call void @abort()
  ret void
}
                
; Function Attrs: noinline optnone uwtable
define weak dso_local void @"?availableFeatures@KitAspect@ProjectExplorer@@UEBA?AV?$QSet@VId@Utils@@@@PEBVKit@2@@Z"() #0 {
;  call void @abort()
  ret void
}
                
; Function Attrs: noinline optnone uwtable
define weak dso_local void @"??0EditorManagerPlaceHolder@Core@@QEAA@PEAVQWidget@@@Z"() #0 {
;  call void @abort()
  ret void
}
                
; Function Attrs: noinline optnone uwtable
define weak dso_local void @"??0Console@Internal@Debugger@@QEAA@XZ"() #0 {
;  call void @abort()
  ret void
}
                
; Function Attrs: noinline optnone uwtable
define weak dso_local void @"??1Console@Internal@Debugger@@UEAA@XZ"() #0 {
;  call void @abort()
  ret void
}
                
; Function Attrs: noinline optnone uwtable
define weak dso_local void @"?kit@KitManager@ProjectExplorer@@SAPEAVKit@2@AEBV?$function@$$A6A_NPEBVKit@ProjectExplorer@@@Z@std@@@Z"() #0 {
;  call void @abort()
  ret void
}
                
; Function Attrs: noinline optnone uwtable
define weak dso_local void @"?defaultKit@KitManager@ProjectExplorer@@SAPEAVKit@2@XZ"() #0 {
;  call void @abort()
  ret void
}
                
; Function Attrs: noinline optnone uwtable
define weak dso_local void @"?canRunStartupProject@ProjectExplorerPlugin@ProjectExplorer@@SA_NVId@Utils@@PEAVQString@@@Z"() #0 {
;  call void @abort()
  ret void
}
                
; Function Attrs: noinline optnone uwtable
define weak dso_local void @"?fromEditor@TextEditorWidget@TextEditor@@SAPEAV12@PEBVIEditor@Core@@@Z"() #0 {
;  call void @abort()
  ret void
}
                
; Function Attrs: noinline optnone uwtable
define weak dso_local void @"?textDocument@TextEditorWidget@TextEditor@@QEBAPEAVTextDocument@2@XZ"() #0 {
;  call void @abort()
  ret void
}
                
; Function Attrs: noinline optnone uwtable
define weak dso_local void @"?projectExplorerSettings@ProjectExplorerPlugin@ProjectExplorer@@SAAEBVProjectExplorerSettings@Internal@2@XZ"() #0 {
;  call void @abort()
  ret void
}
                
; Function Attrs: noinline optnone uwtable
define weak dso_local void @"?createSearchableWrapper@ItemViewFind@Core@@SAPEAVQFrame@@PEAVQAbstractItemView@@W4ColorOption@12@W4FetchOption@12@@Z"() #0 {
;  call void @abort()
  ret void
}
                
; Function Attrs: noinline optnone uwtable
define weak dso_local void @"?openEditorWithContents@EditorManager@Core@@SAPEAVIEditor@2@VId@Utils@@PEAVQString@@AEBVQByteArray@@AEBV6@V?$QFlags@W4OpenEditorFlag@EditorManager@Core@@@@@Z"() #0 {
;  call void @abort()
  ret void
}
                
; Function Attrs: noinline optnone uwtable
define weak dso_local void @"?setFallbackSaveAsFileName@TextDocument@TextEditor@@QEAAXAEBVQString@@@Z"() #0 {
;  call void @abort()
  ret void
}
                
; Function Attrs: noinline optnone uwtable
define weak dso_local void @"?createGdbEngine@Internal@Debugger@@YAPEAVDebuggerEngine@12@XZ"() #0 {
;  call void @abort()
  ret void
}
                
; Function Attrs: noinline optnone uwtable
define weak dso_local void @"?createCdbEngine@Internal@Debugger@@YAPEAVDebuggerEngine@12@XZ"() #0 {
;  call void @abort()
  ret void
}
                
; Function Attrs: noinline optnone uwtable
define weak dso_local void @"?createUvscEngine@Internal@Debugger@@YAPEAVDebuggerEngine@12@XZ"() #0 {
;  call void @abort()
  ret void
}
                
; Function Attrs: noinline optnone uwtable
define weak dso_local void @"?createQmlEngine@Internal@Debugger@@YAPEAVDebuggerEngine@12@XZ"() #0 {
;  call void @abort()
  ret void
}
                
; Function Attrs: noinline optnone uwtable
define weak dso_local void @"?printItem@Console@Internal@Debugger@@QEAAXW4ItemType@ConsoleItem@23@AEBVQString@@@Z"() #0 {
;  call void @abort()
  ret void
}
                
; Function Attrs: noinline optnone uwtable
define weak dso_local void @"?qtPackageSourcePath@BaseQtVersion@QtSupport@@QEBA?AVFilePath@Utils@@XZ"() #0 {
;  call void @abort()
  ret void
}
                
; Function Attrs: noinline optnone uwtable
define weak dso_local void @"?createPdbEngine@Internal@Debugger@@YAPEAVDebuggerEngine@12@XZ"() #0 {
;  call void @abort()
  ret void
}
                
; Function Attrs: noinline optnone uwtable
define weak dso_local void @"?startRunControl@ProjectExplorerPlugin@ProjectExplorer@@SAXPEAVRunControl@2@@Z"() #0 {
;  call void @abort()
  ret void
}
                
; Function Attrs: noinline optnone uwtable
define weak dso_local void @"?toolTipPosition@TextEditorWidget@TextEditor@@QEBA?AVQPoint@@AEBVQTextCursor@@@Z"() #0 {
;  call void @abort()
  ret void
}
                
; Function Attrs: noinline optnone uwtable
define weak dso_local void @"?convertPosition@TextEditorWidget@TextEditor@@QEBAXHPEAH0@Z"() #0 {
;  call void @abort()
  ret void
}
                
; Function Attrs: noinline optnone uwtable
define weak dso_local void @"?instance@EditorManager@Core@@SAPEAV12@XZ"() #0 {
;  call void @abort()
  ret void
}
                
; Function Attrs: noinline optnone uwtable
define weak dso_local void @"?removeMark@TextDocument@TextEditor@@QEAAXPEAVTextMark@2@@Z"() #0 {
;  call void @abort()
  ret void
}
                
; Function Attrs: noinline optnone uwtable
define weak dso_local void @"?setReadOnly@TextEditorWidget@TextEditor@@QEAAX_N@Z"() #0 {
;  call void @abort()
  ret void
}
                
; Function Attrs: noinline optnone uwtable
define weak dso_local void @"?setRequestMarkEnabled@TextEditorWidget@TextEditor@@QEAAX_N@Z"() #0 {
;  call void @abort()
  ret void
}
                
; Function Attrs: noinline optnone uwtable
define weak dso_local void @"?activateEditorForDocument@EditorManager@Core@@SAPEAVIEditor@2@PEAVIDocument@2@V?$QFlags@W4OpenEditorFlag@EditorManager@Core@@@@@Z"() #0 {
;  call void @abort()
  ret void
}
                
; Function Attrs: noinline optnone uwtable
define weak dso_local void @"?setPlainText@TextDocument@TextEditor@@QEAA_NAEBVQString@@@Z"() #0 {
;  call void @abort()
  ret void
}
                
; Function Attrs: noinline optnone uwtable
define weak dso_local void @"?configureGenericHighlighter@TextEditorWidget@TextEditor@@QEAAXXZ"() #0 {
;  call void @abort()
  ret void
}
                
; Function Attrs: noinline optnone uwtable
define weak dso_local void @"?staticMetaObject@TextDocument@TextEditor@@2UQMetaObject@@B"() #0 {
;  call void @abort()
  ret void
}
                
; Function Attrs: noinline optnone uwtable
define weak dso_local void @"?addMark@TextDocument@TextEditor@@QEAA_NPEAVTextMark@2@@Z"() #0 {
;  call void @abort()
  ret void
}
                
; Function Attrs: noinline optnone uwtable
define weak dso_local void @"?currentDocument@EditorManager@Core@@SAPEAVIDocument@2@XZ"() #0 {
;  call void @abort()
  ret void
}
                
; Function Attrs: noinline optnone uwtable
define weak dso_local void @"?currentEditor@EditorManager@Core@@SAPEAVIEditor@2@XZ"() #0 {
;  call void @abort()
  ret void
}
                
; Function Attrs: noinline optnone uwtable
define weak dso_local void @"??0FindToolBarPlaceHolder@Core@@QEAA@PEAVQWidget@@0@Z"() #0 {
;  call void @abort()
  ret void
}
                
; Function Attrs: noinline optnone uwtable
define weak dso_local void @"??0BaseTextFind@Core@@QEAA@PEAVQPlainTextEdit@@@Z"() #0 {
;  call void @abort()
  ret void
}
                
; Function Attrs: noinline optnone uwtable
define weak dso_local void @"?activateEditor@EditorManager@Core@@SAXPEAVIEditor@2@V?$QFlags@W4OpenEditorFlag@EditorManager@Core@@@@@Z"() #0 {
;  call void @abort()
  ret void
}
                
; Function Attrs: noinline optnone uwtable
define weak dso_local void @"?setTextCursor@BaseTextEditor@TextEditor@@QEAAXAEBVQTextCursor@@@Z"() #0 {
;  call void @abort()
  ret void
}
                
; Function Attrs: noinline optnone uwtable
define weak dso_local void @"?characterAt@TextEditorWidget@TextEditor@@QEBA?AVQChar@@H@Z"() #0 {
;  call void @abort()
  ret void
}
                
; Function Attrs: noinline optnone uwtable
define weak dso_local void @"?document@TextDocument@TextEditor@@QEBAPEAVQTextDocument@@XZ"() #0 {
;  call void @abort()
  ret void
}
                
; Function Attrs: noinline optnone uwtable
define weak dso_local void @"?useProjectsDirectory@DocumentManager@Core@@SA_NXZ"() #0 {
;  call void @abort()
  ret void
}
                
; Function Attrs: noinline optnone uwtable
define weak dso_local void @"?projectsDirectory@DocumentManager@Core@@SA?AVFilePath@Utils@@XZ"() #0 {
;  call void @abort()
  ret void
}
                
; Function Attrs: noinline optnone uwtable
define weak dso_local void @"?fileDialogLastVisitedDirectory@DocumentManager@Core@@SA?AVQString@@XZ"() #0 {
;  call void @abort()
  ret void
}
                
; Function Attrs: noinline optnone uwtable
define weak dso_local void @"?fileDialogInitialDirectory@DocumentManager@Core@@SA?AVQString@@XZ"() #0 {
;  call void @abort()
  ret void
}
                
; Function Attrs: noinline optnone uwtable
define weak dso_local void @"?openEditorAt@EditorManager@Core@@SAPEAVIEditor@2@AEBVQString@@HHVId@Utils@@V?$QFlags@W4OpenEditorFlag@EditorManager@Core@@@@PEA_N@Z"() #0 {
;  call void @abort()
  ret void
}
                
; Function Attrs: noinline optnone uwtable
define weak dso_local void @"?instance@DocumentManager@Core@@SAPEAV12@XZ"() #0 {
;  call void @abort()
  ret void
}
                
; Function Attrs: noinline optnone uwtable
define weak dso_local void @"??0AddToVcsDialog@Internal@Core@@QEAA@PEAVQWidget@@AEBVQString@@AEBVQStringList@@1@Z"() #0 {
;  call void @abort()
  ret void
}
                
; Function Attrs: noinline optnone uwtable
define weak dso_local void @"??1AddToVcsDialog@Internal@Core@@UEAA@XZ"() #0 {
;  call void @abort()
  ret void
}
                
; Function Attrs: noinline optnone uwtable
define weak dso_local void @"?instance@EditorManagerPrivate@Internal@Core@@SAPEAV123@XZ"() #0 {
;  call void @abort()
  ret void
}
                
; Function Attrs: noinline optnone uwtable
define weak dso_local void @"?placeholderText@EditorManagerPrivate@Internal@Core@@SA?AVQString@@XZ"() #0 {
;  call void @abort()
  ret void
}
                
; Function Attrs: noinline optnone uwtable
define weak dso_local void @"?activateEditorForDocument@EditorManagerPrivate@Internal@Core@@SAPEAVIEditor@3@PEAVEditorView@23@PEAVIDocument@3@V?$QFlags@W4OpenEditorFlag@EditorManager@Core@@@@@Z"() #0 {
;  call void @abort()
  ret void
}
                
; Function Attrs: noinline optnone uwtable
define weak dso_local void @"?openEditor@EditorManagerPrivate@Internal@Core@@SAPEAVIEditor@3@PEAVEditorView@23@AEBVQString@@VId@Utils@@V?$QFlags@W4OpenEditorFlag@EditorManager@Core@@@@PEA_N@Z"() #0 {
;  call void @abort()
  ret void
}
                
; Function Attrs: noinline optnone uwtable
define weak dso_local void @"?closeEditorOrDocument@EditorManagerPrivate@Internal@Core@@SAXPEAVIEditor@3@@Z"() #0 {
;  call void @abort()
  ret void
}
                
; Function Attrs: noinline optnone uwtable
define weak dso_local void @"?activateEditorForEntry@EditorManagerPrivate@Internal@Core@@SA_NPEAVEditorView@23@PEAUEntry@DocumentModel@3@V?$QFlags@W4OpenEditorFlag@EditorManager@Core@@@@@Z"() #0 {
;  call void @abort()
  ret void
}
                
; Function Attrs: noinline optnone uwtable
define weak dso_local void @"?updateActions@EditorManagerPrivate@Internal@Core@@SAXXZ"() #0 {
;  call void @abort()
  ret void
}
                
; Function Attrs: noinline optnone uwtable
define weak dso_local void @"?splitNewWindow@EditorManagerPrivate@Internal@Core@@SAXPEAVEditorView@23@@Z"() #0 {
;  call void @abort()
  ret void
}
                
; Function Attrs: noinline optnone uwtable
define weak dso_local void @"?closeView@EditorManagerPrivate@Internal@Core@@SAXPEAVEditorView@23@@Z"() #0 {
;  call void @abort()
  ret void
}
                
; Function Attrs: noinline optnone uwtable
define weak dso_local void @"?openEditorAt@EditorManagerPrivate@Internal@Core@@SAPEAVIEditor@3@PEAVEditorView@23@AEBVQString@@HHVId@Utils@@V?$QFlags@W4OpenEditorFlag@EditorManager@Core@@@@PEA_N@Z"() #0 {
;  call void @abort()
  ret void
}
                
; Function Attrs: noinline optnone uwtable
define weak dso_local void @"?currentEditorView@EditorManagerPrivate@Internal@Core@@SAPEAVEditorView@23@XZ"() #0 {
;  call void @abort()
  ret void
}
                
; Function Attrs: noinline optnone uwtable
define weak dso_local void @"?setCurrentView@EditorManagerPrivate@Internal@Core@@SAXPEAVEditorView@23@@Z"() #0 {
;  call void @abort()
  ret void
}
                
; Function Attrs: noinline optnone uwtable
define weak dso_local void @"?addSaveAndCloseEditorActions@EditorManager@Core@@SAXPEAVQMenu@@PEAUEntry@DocumentModel@2@PEAVIEditor@2@@Z"() #0 {
;  call void @abort()
  ret void
}
                
; Function Attrs: noinline optnone uwtable
define weak dso_local void @"?addNativeDirAndOpenWithActions@EditorManager@Core@@SAXPEAVQMenu@@PEAUEntry@DocumentModel@2@@Z"() #0 {
;  call void @abort()
  ret void
}
                
; Function Attrs: noinline optnone uwtable
define weak dso_local void @"?duplicateEditor@EditorManagerPrivate@Internal@Core@@SAPEAVIEditor@3@PEAV43@@Z"() #0 {
;  call void @abort()
  ret void
}
                
; Function Attrs: noinline optnone uwtable
define weak dso_local void @"?activateView@EditorManagerPrivate@Internal@Core@@SAXPEAVEditorView@23@@Z"() #0 {
;  call void @abort()
  ret void
}
                
; Function Attrs: noinline optnone uwtable
define weak dso_local void @"?emptyView@EditorManagerPrivate@Internal@Core@@SA?BV?$QList@PEAVIEditor@Core@@@@PEAVEditorView@23@@Z"() #0 {
;  call void @abort()
  ret void
}
                
; Function Attrs: noinline optnone uwtable
define weak dso_local void @"?deleteEditors@EditorManagerPrivate@Internal@Core@@SAXAEBV?$QList@PEAVIEditor@Core@@@@@Z"() #0 {
;  call void @abort()
  ret void
}
                
; Function Attrs: noinline optnone uwtable
define weak dso_local void @"?setCurrentEditor@EditorManagerPrivate@Internal@Core@@SAXPEAVIEditor@3@_N@Z"() #0 {
;  call void @abort()
  ret void
}
                
; Function Attrs: noinline optnone uwtable
define weak dso_local void @"?createLocatorInputWidget@LocatorManager@Core@@SAPEAVQWidget@@PEAV3@@Z"() #0 {
;  call void @abort()
  ret void
}
                
; Function Attrs: noinline optnone uwtable
define weak dso_local void @"?updateWindowTitleForDocument@EditorManagerPrivate@Internal@Core@@SAXPEAVIDocument@3@PEAVQWidget@@@Z"() #0 {
;  call void @abort()
  ret void
}
                
; Function Attrs: noinline optnone uwtable
define weak dso_local void @"?filePathKey@DocumentManager@Core@@SA?AVQString@@AEBV3@W4ResolveMode@12@@Z"() #0 {
;  call void @abort()
  ret void
}
                
; Function Attrs: noinline optnone uwtable
define weak dso_local void @"?closeDocuments@EditorManager@Core@@SA_NAEBV?$QList@PEAUEntry@DocumentModel@Core@@@@@Z"() #0 {
;  call void @abort()
  ret void
}
                
; Function Attrs: noinline optnone uwtable
define weak dso_local void @"?addPinEditorActions@EditorManager@Core@@SAXPEAVQMenu@@PEAUEntry@DocumentModel@2@@Z"() #0 {
;  call void @abort()
  ret void
}
                
; Function Attrs: noinline optnone uwtable
define weak dso_local void @"?activateEditorForEntry@EditorManager@Core@@SAXPEAUEntry@DocumentModel@2@V?$QFlags@W4OpenEditorFlag@EditorManager@Core@@@@@Z"() #0 {
;  call void @abort()
  ret void
}
                
; Function Attrs: noinline optnone uwtable
define weak dso_local void @"?maxTextFileSize@EditorManager@Core@@SA_JXZ"() #0 {
;  call void @abort()
  ret void
}
                
; Function Attrs: noinline optnone uwtable
define weak dso_local void @"?getSaveFileNameWithExtension@DocumentManager@Core@@SA?AVQString@@AEBV3@00@Z"() #0 {
;  call void @abort()
  ret void
}
                
; Function Attrs: noinline optnone uwtable
define weak dso_local void @"?cleanup@ProgressManagerPrivate@Internal@Core@@QEAAXXZ"() #0 {
;  call void @abort()
  ret void
}
                
; Function Attrs: noinline optnone uwtable
define weak dso_local void @"?initInternal@ProgressManagerPrivate@Internal@Core@@AEAAXXZ"() #0 {
;  call void @abort()
  ret void
}
                
; Function Attrs: noinline optnone uwtable
define weak dso_local void @"?setApplicationProgressRange@ProgressManagerPrivate@Internal@Core@@AEAAXHH@Z"() #0 {
;  call void @abort()
  ret void
}
                
; Function Attrs: noinline optnone uwtable
define weak dso_local void @"?setApplicationProgressValue@ProgressManagerPrivate@Internal@Core@@AEAAXH@Z"() #0 {
;  call void @abort()
  ret void
}
                
; Function Attrs: noinline optnone uwtable
define weak dso_local void @"?setApplicationProgressVisible@ProgressManagerPrivate@Internal@Core@@AEAAX_N@Z"() #0 {
;  call void @abort()
  ret void
}
                
; Function Attrs: noinline optnone uwtable
define weak dso_local void @"?doSetApplicationLabel@ProgressManagerPrivate@Internal@Core@@QEAAXAEBVQString@@@Z"() #0 {
;  call void @abort()
  ret void
}
                
; Function Attrs: noinline optnone uwtable
define weak dso_local void @"?addContextObject@MainWindow@Internal@Core@@QEAAXPEAVIContext@3@@Z"() #0 {
;  call void @abort()
  ret void
}
                
; Function Attrs: noinline optnone uwtable
define weak dso_local void @"?removeContextObject@MainWindow@Internal@Core@@QEAAXPEAVIContext@3@@Z"() #0 {
;  call void @abort()
  ret void
}
                
; Function Attrs: noinline optnone uwtable
define weak dso_local void @"?defaultTextCodec@EditorManager@Core@@SAPEAVQTextCodec@@XZ"() #0 {
;  call void @abort()
  ret void
}
                
; Function Attrs: noinline optnone uwtable
define weak dso_local void @"?defaultLineEnding@EditorManager@Core@@SA?AW4LineTerminationMode@TextFileFormat@Utils@@XZ"() #0 {
;  call void @abort()
  ret void
}
                
; Function Attrs: noinline optnone uwtable
define weak dso_local void @"??0PluginDetailsView@ExtensionSystem@@QEAA@PEAVQWidget@@@Z"() #0 {
;  call void @abort()
  ret void
}
                
; Function Attrs: noinline optnone uwtable
define weak dso_local void @"?update@PluginDetailsView@ExtensionSystem@@QEAAXPEAVPluginSpec@2@@Z"() #0 {
;  call void @abort()
  ret void
}
                
; Function Attrs: noinline optnone uwtable
define weak dso_local void @"??0PluginErrorView@ExtensionSystem@@QEAA@PEAVQWidget@@@Z"() #0 {
;  call void @abort()
  ret void
}
                
; Function Attrs: noinline optnone uwtable
define weak dso_local void @"?update@PluginErrorView@ExtensionSystem@@QEAAXPEAVPluginSpec@2@@Z"() #0 {
;  call void @abort()
  ret void
}
                
; Function Attrs: noinline optnone uwtable
define weak dso_local void @"?currentDialog@NewDialog@Internal@Core@@SAPEAVQWidget@@XZ"() #0 {
;  call void @abort()
  ret void
}
                
; Function Attrs: noinline optnone uwtable
define weak dso_local void @"??0NewDialog@Internal@Core@@QEAA@PEAVQWidget@@@Z"() #0 {
;  call void @abort()
  ret void
}
                
; Function Attrs: noinline optnone uwtable
define weak dso_local void @"?setWizardFactories@NewDialog@Internal@Core@@QEAAXV?$QList@PEAVIWizardFactory@Core@@@@AEBVQString@@AEBV?$QMap@VQString@@VQVariant@@@@@Z"() #0 {
;  call void @abort()
  ret void
}
                
; Function Attrs: noinline optnone uwtable
define weak dso_local void @"?showDialog@NewDialog@Internal@Core@@QEAAXXZ"() #0 {
;  call void @abort()
  ret void
}
                
; Function Attrs: noinline optnone uwtable
define weak dso_local void @"?executeSettingsDialog@Internal@Core@@YA_NPEAVQWidget@@VId@Utils@@@Z"() #0 {
;  call void @abort()
  ret void
}
                
; Function Attrs: noinline optnone uwtable
define weak dso_local void @"?currentContextObject@MainWindow@Internal@Core@@QEBAPEAVIContext@3@XZ"() #0 {
;  call void @abort()
  ret void
}
                
; Function Attrs: noinline optnone uwtable
define weak dso_local void @"?contextObject@MainWindow@Internal@Core@@QEBAPEAVIContext@3@PEAVQWidget@@@Z"() #0 {
;  call void @abort()
  ret void
}
                
; Function Attrs: noinline optnone uwtable
define weak dso_local void @"?statusBar@MainWindow@Internal@Core@@QEBAPEAVQStatusBar@@XZ"() #0 {
;  call void @abort()
  ret void
}
                
; Function Attrs: noinline optnone uwtable
define weak dso_local void @"?infoBar@MainWindow@Internal@Core@@QEBAPEAVInfoBar@Utils@@XZ"() #0 {
;  call void @abort()
  ret void
}
                
; Function Attrs: noinline optnone uwtable
define weak dso_local void @"?updateAdditionalContexts@MainWindow@Internal@Core@@QEAAXAEBVContext@3@0W4ContextPriority@ICore@3@@Z"() #0 {
;  call void @abort()
  ret void
}
                
; Function Attrs: noinline optnone uwtable
define weak dso_local void @"?openFiles@MainWindow@Internal@Core@@SAPEAVIDocument@3@AEBVQStringList@@W4OpenFilesFlags@ICore@3@AEBVQString@@@Z"() #0 {
;  call void @abort()
  ret void
}
                
; Function Attrs: noinline optnone uwtable
define weak dso_local void @"?addPreCloseListener@MainWindow@Internal@Core@@QEAAXAEBV?$function@$$A6A_NXZ@std@@@Z"() #0 {
;  call void @abort()
  ret void
}
                
; Function Attrs: noinline optnone uwtable
define weak dso_local void @"?restart@MainWindow@Internal@Core@@QEAAXXZ"() #0 {
;  call void @abort()
  ret void
}
                
; Function Attrs: noinline optnone uwtable
define weak dso_local void @"?saveSettings@MainWindow@Internal@Core@@QEAAXXZ"() #0 {
;  call void @abort()
  ret void
}
                
; Function Attrs: noinline optnone uwtable
define weak dso_local void @"?additionalAboutInformation@MainWindow@Internal@Core@@QEBA?AVQStringList@@XZ"() #0 {
;  call void @abort()
  ret void
}
                
; Function Attrs: noinline optnone uwtable
define weak dso_local void @"?appendAboutInformation@MainWindow@Internal@Core@@QEAAXAEBVQString@@@Z"() #0 {
;  call void @abort()
  ret void
}
                
; Function Attrs: noinline optnone uwtable
define weak dso_local void @"?makeFileWritable@EditorManagerPrivate@Internal@Core@@SA?AW4MakeWritableResult@23@PEAVIDocument@3@@Z"() #0 {
;  call void @abort()
  ret void
}
                
; Function Attrs: noinline optnone uwtable
define weak dso_local void @"?slotCloseCurrentEditorOrDocument@EditorManager@Core@@SAXXZ"() #0 {
;  call void @abort()
  ret void
}
                
; Function Attrs: noinline optnone uwtable
define weak dso_local void @"?instance@CorePlugin@Internal@Core@@SAPEAV123@XZ"() #0 {
;  call void @abort()
  ret void
}
                
; Function Attrs: noinline optnone uwtable
define weak dso_local void @"??0OptionsPopup@Core@@QEAA@PEAVQWidget@@AEBV?$QVector@VId@Utils@@@@@Z"() #0 {
;  call void @abort()
  ret void
}
                
; Function Attrs: noinline optnone uwtable
define weak dso_local void @"?saveModifiedDocument@DocumentManager@Core@@SA_NPEAVIDocument@2@AEBVQString@@PEA_N12PEAV?$QList@PEAVIDocument@Core@@@@@Z"() #0 {
;  call void @abort()
  ret void
}
                
; Function Attrs: noinline optnone uwtable
define weak dso_local void @"?expectFileChange@DocumentManager@Core@@SAXAEBVQString@@@Z"() #0 {
;  call void @abort()
  ret void
}
                
; Function Attrs: noinline optnone uwtable
define weak dso_local void @"?unexpectFileChange@DocumentManager@Core@@SAXAEBVQString@@@Z"() #0 {
;  call void @abort()
  ret void
}
                
; Function Attrs: noinline optnone uwtable
define weak dso_local void @"??0ILocatorFilter@Core@@QEAA@PEAVQObject@@@Z"() #0 {
;  call void @abort()
  ret void
}
                
; Function Attrs: noinline optnone uwtable
define weak dso_local void @"?setId@ILocatorFilter@Core@@IEAAXVId@Utils@@@Z"() #0 {
;  call void @abort()
  ret void
}
                
; Function Attrs: noinline optnone uwtable
define weak dso_local void @"?setDisplayName@ILocatorFilter@Core@@IEAAXAEBVQString@@@Z"() #0 {
;  call void @abort()
  ret void
}
                
; Function Attrs: noinline optnone uwtable
define weak dso_local void @"?setShortcutString@ILocatorFilter@Core@@QEAAXAEBVQString@@@Z"() #0 {
;  call void @abort()
  ret void
}
                
; Function Attrs: noinline optnone uwtable
define weak dso_local void @"??1ILocatorFilter@Core@@UEAA@XZ"() #0 {
;  call void @abort()
  ret void
}
                
; Function Attrs: noinline optnone uwtable
define weak dso_local void @"?locatorHasFocus@LocatorManager@Core@@SA_NXZ"() #0 {
;  call void @abort()
  ret void
}
                
; Function Attrs: noinline optnone uwtable
define weak dso_local void @"?saveState@ILocatorFilter@Core@@UEBA?AVQByteArray@@XZ"() #0 {
;  call void @abort()
  ret void
}
                
; Function Attrs: noinline optnone uwtable
define weak dso_local void @"?restoreState@ILocatorFilter@Core@@UEAAXAEBVQByteArray@@@Z"() #0 {
;  call void @abort()
  ret void
}
                
; Function Attrs: noinline optnone uwtable
define weak dso_local void @"?openConfigDialog@ILocatorFilter@Core@@UEAA_NPEAVQWidget@@AEA_N@Z"() #0 {
;  call void @abort()
  ret void
}
                
; Function Attrs: noinline optnone uwtable
define weak dso_local void @"??0TextEditorFactory@TextEditor@@QEAA@XZ"() #0 {
;  call void @abort()
  ret void
}
                
; Function Attrs: noinline optnone uwtable
define weak dso_local void @"?addHoverHandler@TextEditorFactory@TextEditor@@QEAAXPEAVBaseHoverHandler@2@@Z"() #0 {
;  call void @abort()
  ret void
}
                
; Function Attrs: noinline optnone uwtable
define weak dso_local void @"?setDocumentCreator@TextEditorFactory@TextEditor@@QEAAXAEBV?$function@$$A6APEAVTextDocument@TextEditor@@XZ@std@@@Z"() #0 {
;  call void @abort()
  ret void
}
                
; Function Attrs: noinline optnone uwtable
define weak dso_local void @"?setEditorWidgetCreator@TextEditorFactory@TextEditor@@QEAAXAEBV?$function@$$A6APEAVQWidget@@XZ@std@@@Z"() #0 {
;  call void @abort()
  ret void
}
                
; Function Attrs: noinline optnone uwtable
define weak dso_local void @"?setUseGenericHighlighter@TextEditorFactory@TextEditor@@QEAAX_N@Z"() #0 {
;  call void @abort()
  ret void
}
                
; Function Attrs: noinline optnone uwtable
define weak dso_local void @"?setEditorActionHandlers@TextEditorFactory@TextEditor@@QEAAXI@Z"() #0 {
;  call void @abort()
  ret void
}
                
; Function Attrs: noinline optnone uwtable
define weak dso_local void @"??1TextEditorFactory@TextEditor@@UEAA@XZ"() #0 {
;  call void @abort()
  ret void
}
                
; Function Attrs: noinline optnone uwtable
define weak dso_local void @"??0TextDocument@TextEditor@@QEAA@VId@Utils@@@Z"() #0 {
;  call void @abort()
  ret void
}
                
; Function Attrs: noinline optnone uwtable
define weak dso_local void @"??0TextEditorWidget@TextEditor@@QEAA@PEAVQWidget@@@Z"() #0 {
;  call void @abort()
  ret void
}
                
; Function Attrs: noinline optnone uwtable
define weak dso_local void @"??1TextEditorWidget@TextEditor@@UEAA@XZ"() #0 {
;  call void @abort()
  ret void
}
                
; Function Attrs: noinline optnone uwtable
define weak dso_local void @"?event@TextEditorWidget@TextEditor@@MEAA_NPEAVQEvent@@@Z"() #0 {
;  call void @abort()
  ret void
}
                
; Function Attrs: noinline optnone uwtable
define weak dso_local void @"?timerEvent@TextEditorWidget@TextEditor@@MEAAXPEAVQTimerEvent@@@Z"() #0 {
;  call void @abort()
  ret void
}
                
; Function Attrs: noinline optnone uwtable
define weak dso_local void @"?mousePressEvent@TextEditorWidget@TextEditor@@MEAAXPEAVQMouseEvent@@@Z"() #0 {
;  call void @abort()
  ret void
}
                
; Function Attrs: noinline optnone uwtable
define weak dso_local void @"?mouseReleaseEvent@TextEditorWidget@TextEditor@@MEAAXPEAVQMouseEvent@@@Z"() #0 {
;  call void @abort()
  ret void
}
                
; Function Attrs: noinline optnone uwtable
define weak dso_local void @"?mouseDoubleClickEvent@TextEditorWidget@TextEditor@@MEAAXPEAVQMouseEvent@@@Z"() #0 {
;  call void @abort()
  ret void
}
                
; Function Attrs: noinline optnone uwtable
define weak dso_local void @"?mouseMoveEvent@TextEditorWidget@TextEditor@@MEAAXPEAVQMouseEvent@@@Z"() #0 {
;  call void @abort()
  ret void
}
                
; Function Attrs: noinline optnone uwtable
define weak dso_local void @"?wheelEvent@TextEditorWidget@TextEditor@@MEAAXPEAVQWheelEvent@@@Z"() #0 {
;  call void @abort()
  ret void
}
                
; Function Attrs: noinline optnone uwtable
define weak dso_local void @"?keyPressEvent@TextEditorWidget@TextEditor@@MEAAXPEAVQKeyEvent@@@Z"() #0 {
;  call void @abort()
  ret void
}
                
; Function Attrs: noinline optnone uwtable
define weak dso_local void @"?keyReleaseEvent@TextEditorWidget@TextEditor@@MEAAXPEAVQKeyEvent@@@Z"() #0 {
;  call void @abort()
  ret void
}
                
; Function Attrs: noinline optnone uwtable
define weak dso_local void @"?focusInEvent@TextEditorWidget@TextEditor@@MEAAXPEAVQFocusEvent@@@Z"() #0 {
;  call void @abort()
  ret void
}
                
; Function Attrs: noinline optnone uwtable
define weak dso_local void @"?focusOutEvent@TextEditorWidget@TextEditor@@MEAAXPEAVQFocusEvent@@@Z"() #0 {
;  call void @abort()
  ret void
}
                
; Function Attrs: noinline optnone uwtable
define weak dso_local void @"?leaveEvent@TextEditorWidget@TextEditor@@MEAAXPEAVQEvent@@@Z"() #0 {
;  call void @abort()
  ret void
}
                
; Function Attrs: noinline optnone uwtable
define weak dso_local void @"?paintEvent@TextEditorWidget@TextEditor@@MEAAXPEAVQPaintEvent@@@Z"() #0 {
;  call void @abort()
  ret void
}
                
; Function Attrs: noinline optnone uwtable
define weak dso_local void @"?resizeEvent@TextEditorWidget@TextEditor@@MEAAXPEAVQResizeEvent@@@Z"() #0 {
;  call void @abort()
  ret void
}
                
; Function Attrs: noinline optnone uwtable
define weak dso_local void @"?contextMenuEvent@TextEditorWidget@TextEditor@@MEAAXPEAVQContextMenuEvent@@@Z"() #0 {
;  call void @abort()
  ret void
}
                
; Function Attrs: noinline optnone uwtable
define weak dso_local void @"?dragEnterEvent@TextEditorWidget@TextEditor@@MEAAXPEAVQDragEnterEvent@@@Z"() #0 {
;  call void @abort()
  ret void
}
                
; Function Attrs: noinline optnone uwtable
define weak dso_local void @"?dropEvent@TextEditorWidget@TextEditor@@MEAAXPEAVQDropEvent@@@Z"() #0 {
;  call void @abort()
  ret void
}
                
; Function Attrs: noinline optnone uwtable
define weak dso_local void @"?showEvent@TextEditorWidget@TextEditor@@MEAAXPEAVQShowEvent@@@Z"() #0 {
;  call void @abort()
  ret void
}
                
; Function Attrs: noinline optnone uwtable
define weak dso_local void @"?changeEvent@TextEditorWidget@TextEditor@@MEAAXPEAVQEvent@@@Z"() #0 {
;  call void @abort()
  ret void
}
                
; Function Attrs: noinline optnone uwtable
define weak dso_local void @"?inputMethodEvent@TextEditorWidget@TextEditor@@MEAAXPEAVQInputMethodEvent@@@Z"() #0 {
;  call void @abort()
  ret void
}
                
; Function Attrs: noinline optnone uwtable
define weak dso_local void @"?viewportEvent@TextEditorWidget@TextEditor@@MEAA_NPEAVQEvent@@@Z"() #0 {
;  call void @abort()
  ret void
}
                
; Function Attrs: noinline optnone uwtable
define weak dso_local void @"?createMimeDataFromSelection@TextEditorWidget@TextEditor@@MEBAPEAVQMimeData@@XZ"() #0 {
;  call void @abort()
  ret void
}
                
; Function Attrs: noinline optnone uwtable
define weak dso_local void @"?canInsertFromMimeData@TextEditorWidget@TextEditor@@MEBA_NPEBVQMimeData@@@Z"() #0 {
;  call void @abort()
  ret void
}
                
; Function Attrs: noinline optnone uwtable
define weak dso_local void @"?insertFromMimeData@TextEditorWidget@TextEditor@@MEAAXPEBVQMimeData@@@Z"() #0 {
;  call void @abort()
  ret void
}
                
; Function Attrs: noinline optnone uwtable
define weak dso_local void @"?doSetTextCursor@TextEditorWidget@TextEditor@@MEAAXAEBVQTextCursor@@@Z"() #0 {
;  call void @abort()
  ret void
}
                
; Function Attrs: noinline optnone uwtable
define weak dso_local void @"?aboutToOpen@TextEditorWidget@TextEditor@@UEAAXAEBVQString@@0@Z"() #0 {
;  call void @abort()
  ret void
}
                
; Function Attrs: noinline optnone uwtable
define weak dso_local void @"?openFinishedSuccessfully@TextEditorWidget@TextEditor@@UEAAXXZ"() #0 {
;  call void @abort()
  ret void
}
                
; Function Attrs: noinline optnone uwtable
define weak dso_local void @"?restoreState@TextEditorWidget@TextEditor@@UEAAXAEBVQByteArray@@@Z"() #0 {
;  call void @abort()
  ret void
}
                
; Function Attrs: noinline optnone uwtable
define weak dso_local void @"?createAssistInterface@TextEditorWidget@TextEditor@@UEBAPEAVAssistInterface@2@W4AssistKind@2@W4AssistReason@2@@Z"() #0 {
;  call void @abort()
  ret void
}
                
; Function Attrs: noinline optnone uwtable
define weak dso_local void @"?extraAreaWidth@TextEditorWidget@TextEditor@@UEBAHPEAH@Z"() #0 {
;  call void @abort()
  ret void
}
                
; Function Attrs: noinline optnone uwtable
define weak dso_local void @"?extraAreaPaintEvent@TextEditorWidget@TextEditor@@UEAAXPEAVQPaintEvent@@@Z"() #0 {
;  call void @abort()
  ret void
}
                
; Function Attrs: noinline optnone uwtable
define weak dso_local void @"?extraAreaLeaveEvent@TextEditorWidget@TextEditor@@UEAAXPEAVQEvent@@@Z"() #0 {
;  call void @abort()
  ret void
}
                
; Function Attrs: noinline optnone uwtable
define weak dso_local void @"?extraAreaContextMenuEvent@TextEditorWidget@TextEditor@@UEAAXPEAVQContextMenuEvent@@@Z"() #0 {
;  call void @abort()
  ret void
}
                
; Function Attrs: noinline optnone uwtable
define weak dso_local void @"?extraAreaMouseEvent@TextEditorWidget@TextEditor@@UEAAXPEAVQMouseEvent@@@Z"() #0 {
;  call void @abort()
  ret void
}
                
; Function Attrs: noinline optnone uwtable
define weak dso_local void @"?copy@TextEditorWidget@TextEditor@@UEAAXXZ"() #0 {
;  call void @abort()
  ret void
}
                
; Function Attrs: noinline optnone uwtable
define weak dso_local void @"?paste@TextEditorWidget@TextEditor@@UEAAXXZ"() #0 {
;  call void @abort()
  ret void
}
                
; Function Attrs: noinline optnone uwtable
define weak dso_local void @"?cut@TextEditorWidget@TextEditor@@UEAAXXZ"() #0 {
;  call void @abort()
  ret void
}
                
; Function Attrs: noinline optnone uwtable
define weak dso_local void @"?selectAll@TextEditorWidget@TextEditor@@UEAAXXZ"() #0 {
;  call void @abort()
  ret void
}
                
; Function Attrs: noinline optnone uwtable
define weak dso_local void @"?autoIndent@TextEditorWidget@TextEditor@@UEAAXXZ"() #0 {
;  call void @abort()
  ret void
}
                
; Function Attrs: noinline optnone uwtable
define weak dso_local void @"?rewrapParagraph@TextEditorWidget@TextEditor@@UEAAXXZ"() #0 {
;  call void @abort()
  ret void
}
                
; Function Attrs: noinline optnone uwtable
define weak dso_local void @"?unCommentSelection@TextEditorWidget@TextEditor@@UEAAXXZ"() #0 {
;  call void @abort()
  ret void
}
                
; Function Attrs: noinline optnone uwtable
define weak dso_local void @"?autoFormat@TextEditorWidget@TextEditor@@UEAAXXZ"() #0 {
;  call void @abort()
  ret void
}
                
; Function Attrs: noinline optnone uwtable
define weak dso_local void @"?encourageApply@TextEditorWidget@TextEditor@@UEAAXXZ"() #0 {
;  call void @abort()
  ret void
}
                
; Function Attrs: noinline optnone uwtable
define weak dso_local void @"?setDisplaySettings@TextEditorWidget@TextEditor@@UEAAXAEBVDisplaySettings@2@@Z"() #0 {
;  call void @abort()
  ret void
}
                
; Function Attrs: noinline optnone uwtable
define weak dso_local void @"?setMarginSettings@TextEditorWidget@TextEditor@@UEAAXAEBVMarginSettings@2@@Z"() #0 {
;  call void @abort()
  ret void
}
                
; Function Attrs: noinline optnone uwtable
define weak dso_local void @"?selectBlockUp@TextEditorWidget@TextEditor@@UEAA_NXZ"() #0 {
;  call void @abort()
  ret void
}
                
; Function Attrs: noinline optnone uwtable
define weak dso_local void @"?selectBlockDown@TextEditorWidget@TextEditor@@UEAA_NXZ"() #0 {
;  call void @abort()
  ret void
}
                
; Function Attrs: noinline optnone uwtable
define weak dso_local void @"?findUsages@TextEditorWidget@TextEditor@@UEAAXXZ"() #0 {
;  call void @abort()
  ret void
}
                
; Function Attrs: noinline optnone uwtable
define weak dso_local void @"?renameSymbolUnderCursor@TextEditorWidget@TextEditor@@UEAAXXZ"() #0 {
;  call void @abort()
  ret void
}
                
; Function Attrs: noinline optnone uwtable
define weak dso_local void @"?paintBlock@TextEditorWidget@TextEditor@@MEBAXPEAVQPainter@@AEBVQTextBlock@@AEBVQPointF@@AEBV?$QVector@UFormatRange@QTextLayout@@@@AEBVQRect@@@Z"() #0 {
;  call void @abort()
  ret void
}
                
; Function Attrs: noinline optnone uwtable
define weak dso_local void @"?plainTextFromSelection@TextEditorWidget@TextEditor@@MEBA?AVQString@@AEBVQTextCursor@@@Z"() #0 {
;  call void @abort()
  ret void
}
                
; Function Attrs: noinline optnone uwtable
define weak dso_local void @"?lineNumber@TextEditorWidget@TextEditor@@MEBA?AVQString@@H@Z"() #0 {
;  call void @abort()
  ret void
}
                
; Function Attrs: noinline optnone uwtable
define weak dso_local void @"?lineNumberDigits@TextEditorWidget@TextEditor@@MEBAHXZ"() #0 {
;  call void @abort()
  ret void
}
                
; Function Attrs: noinline optnone uwtable
define weak dso_local void @"?selectionVisible@TextEditorWidget@TextEditor@@MEBA_NH@Z"() #0 {
;  call void @abort()
  ret void
}
                
; Function Attrs: noinline optnone uwtable
define weak dso_local void @"?replacementVisible@TextEditorWidget@TextEditor@@MEBA_NH@Z"() #0 {
;  call void @abort()
  ret void
}
                
; Function Attrs: noinline optnone uwtable
define weak dso_local void @"?replacementPenColor@TextEditorWidget@TextEditor@@MEBA?AVQColor@@H@Z"() #0 {
;  call void @abort()
  ret void
}
                
; Function Attrs: noinline optnone uwtable
define weak dso_local void @"?triggerPendingUpdates@TextEditorWidget@TextEditor@@MEAAXXZ"() #0 {
;  call void @abort()
  ret void
}
                
; Function Attrs: noinline optnone uwtable
define weak dso_local void @"?applyFontSettings@TextEditorWidget@TextEditor@@MEAAXXZ"() #0 {
;  call void @abort()
  ret void
}
                
; Function Attrs: noinline optnone uwtable
define weak dso_local void @"?findLinkAt@TextEditorWidget@TextEditor@@MEAAXAEBVQTextCursor@@$$QEAV?$function@$$A6AXAEBULink@Utils@@@Z@std@@_N2@Z"() #0 {
;  call void @abort()
  ret void
}
                
; Function Attrs: noinline optnone uwtable
define weak dso_local void @"?foldReplacementText@TextEditorWidget@TextEditor@@MEBA?AVQString@@AEBVQTextBlock@@@Z"() #0 {
;  call void @abort()
  ret void
}
                
; Function Attrs: noinline optnone uwtable
define weak dso_local void @"?drawCollapsedBlockPopup@TextEditorWidget@TextEditor@@MEAAXAEAVQPainter@@AEBVQTextBlock@@VQPointF@@AEBVQRect@@@Z"() #0 {
;  call void @abort()
  ret void
}
                
; Function Attrs: noinline optnone uwtable
define weak dso_local void @"?slotCursorPositionChanged@TextEditorWidget@TextEditor@@MEAAXXZ"() #0 {
;  call void @abort()
  ret void
}
                
; Function Attrs: noinline optnone uwtable
define weak dso_local void @"?slotCodeStyleSettingsChanged@TextEditorWidget@TextEditor@@MEAAXAEBVQVariant@@@Z"() #0 {
;  call void @abort()
  ret void
}
                
; Function Attrs: noinline optnone uwtable
define weak dso_local void @"?optionalActions@TextEditorWidget@TextEditor@@QEAAIXZ"() #0 {
;  call void @abort()
  ret void
}
                
; Function Attrs: noinline optnone uwtable
define weak dso_local void @"?displaySettings@TextEditorWidget@TextEditor@@QEBAAEBVDisplaySettings@2@XZ"() #0 {
;  call void @abort()
  ret void
}
                
; Function Attrs: noinline optnone uwtable
define weak dso_local void @"?undo@TextEditorWidget@TextEditor@@QEAAXXZ"() #0 {
;  call void @abort()
  ret void
}
                
; Function Attrs: noinline optnone uwtable
define weak dso_local void @"?redo@TextEditorWidget@TextEditor@@QEAAXXZ"() #0 {
;  call void @abort()
  ret void
}
                
; Function Attrs: noinline optnone uwtable
define weak dso_local void @"?lineNumberFilter@TextEditorPlugin@Internal@TextEditor@@SAPEAVLineNumberFilter@23@XZ"() #0 {
;  call void @abort()
  ret void
}
                
; Function Attrs: noinline optnone uwtable
define weak dso_local void @"?shortcutString@ILocatorFilter@Core@@QEBA?AVQString@@XZ"() #0 {
;  call void @abort()
  ret void
}
                
; Function Attrs: noinline optnone uwtable
define weak dso_local void @"?show@LocatorManager@Core@@SAXAEBVQString@@HH@Z"() #0 {
;  call void @abort()
  ret void
}
                
; Function Attrs: noinline optnone uwtable
define weak dso_local void @"?print@TextEditorWidget@TextEditor@@QEAAXPEAVQPrinter@@@Z"() #0 {
;  call void @abort()
  ret void
}
                
; Function Attrs: noinline optnone uwtable
define weak dso_local void @"?deleteLine@TextEditorWidget@TextEditor@@QEAAXXZ"() #0 {
;  call void @abort()
  ret void
}
                
; Function Attrs: noinline optnone uwtable
define weak dso_local void @"?deleteEndOfLine@TextEditorWidget@TextEditor@@QEAAXXZ"() #0 {
;  call void @abort()
  ret void
}
                
; Function Attrs: noinline optnone uwtable
define weak dso_local void @"?deleteEndOfWord@TextEditorWidget@TextEditor@@QEAAXXZ"() #0 {
;  call void @abort()
  ret void
}
                
; Function Attrs: noinline optnone uwtable
define weak dso_local void @"?deleteEndOfWordCamelCase@TextEditorWidget@TextEditor@@QEAAXXZ"() #0 {
;  call void @abort()
  ret void
}
                
; Function Attrs: noinline optnone uwtable
define weak dso_local void @"?deleteStartOfLine@TextEditorWidget@TextEditor@@QEAAXXZ"() #0 {
;  call void @abort()
  ret void
}
                
; Function Attrs: noinline optnone uwtable
define weak dso_local void @"?deleteStartOfWord@TextEditorWidget@TextEditor@@QEAAXXZ"() #0 {
;  call void @abort()
  ret void
}
                
; Function Attrs: noinline optnone uwtable
define weak dso_local void @"?deleteStartOfWordCamelCase@TextEditorWidget@TextEditor@@QEAAXXZ"() #0 {
;  call void @abort()
  ret void
}
                
; Function Attrs: noinline optnone uwtable
define weak dso_local void @"?gotoBlockStartWithSelection@TextEditorWidget@TextEditor@@QEAAXXZ"() #0 {
;  call void @abort()
  ret void
}
                
; Function Attrs: noinline optnone uwtable
define weak dso_local void @"?gotoBlockEndWithSelection@TextEditorWidget@TextEditor@@QEAAXXZ"() #0 {
;  call void @abort()
  ret void
}
                
; Function Attrs: noinline optnone uwtable
define weak dso_local void @"?moveLineUp@TextEditorWidget@TextEditor@@QEAAXXZ"() #0 {
;  call void @abort()
  ret void
}
                
; Function Attrs: noinline optnone uwtable
define weak dso_local void @"?moveLineDown@TextEditorWidget@TextEditor@@QEAAXXZ"() #0 {
;  call void @abort()
  ret void
}
                
; Function Attrs: noinline optnone uwtable
define weak dso_local void @"?copyLineUp@TextEditorWidget@TextEditor@@QEAAXXZ"() #0 {
;  call void @abort()
  ret void
}
                
; Function Attrs: noinline optnone uwtable
define weak dso_local void @"?copyLineDown@TextEditorWidget@TextEditor@@QEAAXXZ"() #0 {
;  call void @abort()
  ret void
}
                
; Function Attrs: noinline optnone uwtable
define weak dso_local void @"?joinLines@TextEditorWidget@TextEditor@@QEAAXXZ"() #0 {
;  call void @abort()
  ret void
}
                
; Function Attrs: noinline optnone uwtable
define weak dso_local void @"?insertLineAbove@TextEditorWidget@TextEditor@@QEAAXXZ"() #0 {
;  call void @abort()
  ret void
}
                
; Function Attrs: noinline optnone uwtable
define weak dso_local void @"?insertLineBelow@TextEditorWidget@TextEditor@@QEAAXXZ"() #0 {
;  call void @abort()
  ret void
}
                
; Function Attrs: noinline optnone uwtable
define weak dso_local void @"?switchUtf8bom@TextEditorWidget@TextEditor@@QEAAXXZ"() #0 {
;  call void @abort()
  ret void
}
                
; Function Attrs: noinline optnone uwtable
define weak dso_local void @"?indent@TextEditorWidget@TextEditor@@QEAAXXZ"() #0 {
;  call void @abort()
  ret void
}
                
; Function Attrs: noinline optnone uwtable
define weak dso_local void @"?unindent@TextEditorWidget@TextEditor@@QEAAXXZ"() #0 {
;  call void @abort()
  ret void
}
                
; Function Attrs: noinline optnone uwtable
define weak dso_local void @"?openLinkUnderCursor@TextEditorWidget@TextEditor@@QEAAXXZ"() #0 {
;  call void @abort()
  ret void
}
                
; Function Attrs: noinline optnone uwtable
define weak dso_local void @"?openLinkUnderCursorInNextSplit@TextEditorWidget@TextEditor@@QEAAXXZ"() #0 {
;  call void @abort()
  ret void
}
                
; Function Attrs: noinline optnone uwtable
define weak dso_local void @"?viewPageUp@TextEditorWidget@TextEditor@@QEAAXXZ"() #0 {
;  call void @abort()
  ret void
}
                
; Function Attrs: noinline optnone uwtable
define weak dso_local void @"?viewPageDown@TextEditorWidget@TextEditor@@QEAAXXZ"() #0 {
;  call void @abort()
  ret void
}
                
; Function Attrs: noinline optnone uwtable
define weak dso_local void @"?viewLineUp@TextEditorWidget@TextEditor@@QEAAXXZ"() #0 {
;  call void @abort()
  ret void
}
                
; Function Attrs: noinline optnone uwtable
define weak dso_local void @"?viewLineDown@TextEditorWidget@TextEditor@@QEAAXXZ"() #0 {
;  call void @abort()
  ret void
}
                
; Function Attrs: noinline optnone uwtable
define weak dso_local void @"?selectEncoding@TextEditorWidget@TextEditor@@QEAAXXZ"() #0 {
;  call void @abort()
  ret void
}
                
; Function Attrs: noinline optnone uwtable
define weak dso_local void @"?circularPaste@TextEditorWidget@TextEditor@@QEAAXXZ"() #0 {
;  call void @abort()
  ret void
}
                
; Function Attrs: noinline optnone uwtable
define weak dso_local void @"?pasteWithoutFormat@TextEditorWidget@TextEditor@@QEAAXXZ"() #0 {
;  call void @abort()
  ret void
}
                
; Function Attrs: noinline optnone uwtable
define weak dso_local void @"?cleanWhitespace@TextEditorWidget@TextEditor@@QEAAXXZ"() #0 {
;  call void @abort()
  ret void
}
                
; Function Attrs: noinline optnone uwtable
define weak dso_local void @"?cutLine@TextEditorWidget@TextEditor@@QEAAXXZ"() #0 {
;  call void @abort()
  ret void
}
                
; Function Attrs: noinline optnone uwtable
define weak dso_local void @"?copyLine@TextEditorWidget@TextEditor@@QEAAXXZ"() #0 {
;  call void @abort()
  ret void
}
                
; Function Attrs: noinline optnone uwtable
define weak dso_local void @"?duplicateSelection@TextEditorWidget@TextEditor@@QEAAXXZ"() #0 {
;  call void @abort()
  ret void
}
                
; Function Attrs: noinline optnone uwtable
define weak dso_local void @"?duplicateSelectionAndComment@TextEditorWidget@TextEditor@@QEAAXXZ"() #0 {
;  call void @abort()
  ret void
}
                
; Function Attrs: noinline optnone uwtable
define weak dso_local void @"?uppercaseSelection@TextEditorWidget@TextEditor@@QEAAXXZ"() #0 {
;  call void @abort()
  ret void
}
                
; Function Attrs: noinline optnone uwtable
define weak dso_local void @"?lowercaseSelection@TextEditorWidget@TextEditor@@QEAAXXZ"() #0 {
;  call void @abort()
  ret void
}
                
; Function Attrs: noinline optnone uwtable
define weak dso_local void @"?sortSelectedLines@TextEditorWidget@TextEditor@@QEAAXXZ"() #0 {
;  call void @abort()
  ret void
}
                
; Function Attrs: noinline optnone uwtable
define weak dso_local void @"?fold@TextEditorWidget@TextEditor@@QEAAXXZ"() #0 {
;  call void @abort()
  ret void
}
                
; Function Attrs: noinline optnone uwtable
define weak dso_local void @"?unfold@TextEditorWidget@TextEditor@@QEAAXXZ"() #0 {
;  call void @abort()
  ret void
}
                
; Function Attrs: noinline optnone uwtable
define weak dso_local void @"?unfoldAll@TextEditorWidget@TextEditor@@QEAAXXZ"() #0 {
;  call void @abort()
  ret void
}
                
; Function Attrs: noinline optnone uwtable
define weak dso_local void @"?zoomF@TextEditorWidget@TextEditor@@QEAAXM@Z"() #0 {
;  call void @abort()
  ret void
}
                
; Function Attrs: noinline optnone uwtable
define weak dso_local void @"?zoomReset@TextEditorWidget@TextEditor@@QEAAXXZ"() #0 {
;  call void @abort()
  ret void
}
                
; Function Attrs: noinline optnone uwtable
define weak dso_local void @"?gotoBlockStart@TextEditorWidget@TextEditor@@QEAAXXZ"() #0 {
;  call void @abort()
  ret void
}
                
; Function Attrs: noinline optnone uwtable
define weak dso_local void @"?gotoBlockEnd@TextEditorWidget@TextEditor@@QEAAXXZ"() #0 {
;  call void @abort()
  ret void
}
                
; Function Attrs: noinline optnone uwtable
define weak dso_local void @"?selectWordUnderCursor@TextEditorWidget@TextEditor@@QEAAXXZ"() #0 {
;  call void @abort()
  ret void
}
                
; Function Attrs: noinline optnone uwtable
define weak dso_local void @"?gotoDocumentStart@TextEditorWidget@TextEditor@@QEAAXXZ"() #0 {
;  call void @abort()
  ret void
}
                
; Function Attrs: noinline optnone uwtable
define weak dso_local void @"?gotoDocumentEnd@TextEditorWidget@TextEditor@@QEAAXXZ"() #0 {
;  call void @abort()
  ret void
}
                
; Function Attrs: noinline optnone uwtable
define weak dso_local void @"?gotoLineStart@TextEditorWidget@TextEditor@@QEAAXXZ"() #0 {
;  call void @abort()
  ret void
}
                
; Function Attrs: noinline optnone uwtable
define weak dso_local void @"?gotoLineEnd@TextEditorWidget@TextEditor@@QEAAXXZ"() #0 {
;  call void @abort()
  ret void
}
                
; Function Attrs: noinline optnone uwtable
define weak dso_local void @"?gotoNextLine@TextEditorWidget@TextEditor@@QEAAXXZ"() #0 {
;  call void @abort()
  ret void
}
                
; Function Attrs: noinline optnone uwtable
define weak dso_local void @"?gotoPreviousLine@TextEditorWidget@TextEditor@@QEAAXXZ"() #0 {
;  call void @abort()
  ret void
}
                
; Function Attrs: noinline optnone uwtable
define weak dso_local void @"?gotoPreviousCharacter@TextEditorWidget@TextEditor@@QEAAXXZ"() #0 {
;  call void @abort()
  ret void
}
                
; Function Attrs: noinline optnone uwtable
define weak dso_local void @"?gotoNextCharacter@TextEditorWidget@TextEditor@@QEAAXXZ"() #0 {
;  call void @abort()
  ret void
}
                
; Function Attrs: noinline optnone uwtable
define weak dso_local void @"?gotoPreviousWord@TextEditorWidget@TextEditor@@QEAAXXZ"() #0 {
;  call void @abort()
  ret void
}
                
; Function Attrs: noinline optnone uwtable
define weak dso_local void @"?gotoNextWord@TextEditorWidget@TextEditor@@QEAAXXZ"() #0 {
;  call void @abort()
  ret void
}
                
; Function Attrs: noinline optnone uwtable
define weak dso_local void @"?gotoPreviousWordCamelCase@TextEditorWidget@TextEditor@@QEAAXXZ"() #0 {
;  call void @abort()
  ret void
}
                
; Function Attrs: noinline optnone uwtable
define weak dso_local void @"?gotoNextWordCamelCase@TextEditorWidget@TextEditor@@QEAAXXZ"() #0 {
;  call void @abort()
  ret void
}
                
; Function Attrs: noinline optnone uwtable
define weak dso_local void @"?gotoLineStartWithSelection@TextEditorWidget@TextEditor@@QEAAXXZ"() #0 {
;  call void @abort()
  ret void
}
                
; Function Attrs: noinline optnone uwtable
define weak dso_local void @"?gotoLineEndWithSelection@TextEditorWidget@TextEditor@@QEAAXXZ"() #0 {
;  call void @abort()
  ret void
}
                
; Function Attrs: noinline optnone uwtable
define weak dso_local void @"?gotoNextLineWithSelection@TextEditorWidget@TextEditor@@QEAAXXZ"() #0 {
;  call void @abort()
  ret void
}
                
; Function Attrs: noinline optnone uwtable
define weak dso_local void @"?gotoPreviousLineWithSelection@TextEditorWidget@TextEditor@@QEAAXXZ"() #0 {
;  call void @abort()
  ret void
}
                
; Function Attrs: noinline optnone uwtable
define weak dso_local void @"?gotoPreviousCharacterWithSelection@TextEditorWidget@TextEditor@@QEAAXXZ"() #0 {
;  call void @abort()
  ret void
}
                
; Function Attrs: noinline optnone uwtable
define weak dso_local void @"?gotoNextCharacterWithSelection@TextEditorWidget@TextEditor@@QEAAXXZ"() #0 {
;  call void @abort()
  ret void
}
                
; Function Attrs: noinline optnone uwtable
define weak dso_local void @"?gotoPreviousWordWithSelection@TextEditorWidget@TextEditor@@QEAAXXZ"() #0 {
;  call void @abort()
  ret void
}
                
; Function Attrs: noinline optnone uwtable
define weak dso_local void @"?gotoNextWordWithSelection@TextEditorWidget@TextEditor@@QEAAXXZ"() #0 {
;  call void @abort()
  ret void
}
                
; Function Attrs: noinline optnone uwtable
define weak dso_local void @"?gotoPreviousWordCamelCaseWithSelection@TextEditorWidget@TextEditor@@QEAAXXZ"() #0 {
;  call void @abort()
  ret void
}
                
; Function Attrs: noinline optnone uwtable
define weak dso_local void @"?gotoNextWordCamelCaseWithSelection@TextEditorWidget@TextEditor@@QEAAXXZ"() #0 {
;  call void @abort()
  ret void
}
                
; Function Attrs: noinline optnone uwtable
define weak dso_local void @"?setPriority@ILocatorFilter@Core@@IEAAXW4Priority@12@@Z"() #0 {
;  call void @abort()
  ret void
}
                
; Function Attrs: noinline optnone uwtable
define weak dso_local void @"?setIncludedByDefault@ILocatorFilter@Core@@QEAAX_N@Z"() #0 {
;  call void @abort()
  ret void
}
                
; Function Attrs: noinline optnone uwtable
define weak dso_local void @"?addCurrentPositionToNavigationHistory@EditorManager@Core@@SAXAEBVQByteArray@@@Z"() #0 {
;  call void @abort()
  ret void
}
                
; Function Attrs: noinline optnone uwtable
define weak dso_local void @"?openFindDialog@Find@Core@@SAXPEAVIFindFilter@2@@Z"() #0 {
;  call void @abort()
  ret void
}
                
; Function Attrs: noinline optnone uwtable
define weak dso_local void @"?validChanged@IFindFilter@Core@@QEAAX_N@Z"() #0 {
;  call void @abort()
  ret void
}
                
; Function Attrs: noinline optnone uwtable
define weak dso_local void @"?defaultShortcut@IFindFilter@Core@@UEBA?AVQKeySequence@@XZ"() #0 {
;  call void @abort()
  ret void
}
                
; Function Attrs: noinline optnone uwtable
define weak dso_local void @"?supportedFindFlags@IFindFilter@Core@@UEBA?AV?$QFlags@W4FindFlag@Core@@@@XZ"() #0 {
;  call void @abort()
  ret void
}
                
; Function Attrs: noinline optnone uwtable
define weak dso_local void @"??0IFindFilter@Core@@QEAA@XZ"() #0 {
;  call void @abort()
  ret void
}
                
; Function Attrs: noinline optnone uwtable
define weak dso_local void @"??1IFindFilter@Core@@UEAA@XZ"() #0 {
;  call void @abort()
  ret void
}
                
; Function Attrs: noinline optnone uwtable
define weak dso_local void @"?instance@SearchResultWindow@Core@@SAPEAV12@XZ"() #0 {
;  call void @abort()
  ret void
}
                
; Function Attrs: noinline optnone uwtable
define weak dso_local void @"?descriptionForFindFlags@IFindFilter@Core@@SA?AVQString@@V?$QFlags@W4FindFlag@Core@@@@@Z"() #0 {
;  call void @abort()
  ret void
}
                
; Function Attrs: noinline optnone uwtable
define weak dso_local void @"?startNewSearch@SearchResultWindow@Core@@QEAAPEAVSearchResult@2@AEBVQString@@00W4SearchMode@12@W4PreserveCaseMode@12@0@Z"() #0 {
;  call void @abort()
  ret void
}
                
; Function Attrs: noinline optnone uwtable
define weak dso_local void @"?setTextToReplace@SearchResult@Core@@QEAAXAEBVQString@@@Z"() #0 {
;  call void @abort()
  ret void
}
                
; Function Attrs: noinline optnone uwtable
define weak dso_local void @"?setSearchAgainSupported@SearchResult@Core@@QEAAX_N@Z"() #0 {
;  call void @abort()
  ret void
}
                
; Function Attrs: noinline optnone uwtable
define weak dso_local void @"?setUserData@SearchResult@Core@@QEAAXAEBVQVariant@@@Z"() #0 {
;  call void @abort()
  ret void
}
                
; Function Attrs: noinline optnone uwtable
define weak dso_local void @"?activated@SearchResult@Core@@QEAAXAEBVSearchResultItem@2@@Z"() #0 {
;  call void @abort()
  ret void
}
                
; Function Attrs: noinline optnone uwtable
define weak dso_local void @"?replaceButtonClicked@SearchResult@Core@@QEAAXAEBVQString@@AEBV?$QList@VSearchResultItem@Core@@@@_N@Z"() #0 {
;  call void @abort()
  ret void
}
                
; Function Attrs: noinline optnone uwtable
define weak dso_local void @"?visibilityChanged@SearchResult@Core@@QEAAX_N@Z"() #0 {
;  call void @abort()
  ret void
}
                
; Function Attrs: noinline optnone uwtable
define weak dso_local void @"?searchAgainRequested@SearchResult@Core@@QEAAXXZ"() #0 {
;  call void @abort()
  ret void
}
                
; Function Attrs: noinline optnone uwtable
define weak dso_local void @"?requestEnabledCheck@SearchResult@Core@@QEAAXXZ"() #0 {
;  call void @abort()
  ret void
}
                
; Function Attrs: noinline optnone uwtable
define weak dso_local void @"?enabledChanged@IFindFilter@Core@@QEAAX_N@Z"() #0 {
;  call void @abort()
  ret void
}
                
; Function Attrs: noinline optnone uwtable
define weak dso_local void @"?staticMetaObject@SearchResult@Core@@2UQMetaObject@@B"() #0 {
;  call void @abort()
  ret void
}
                
; Function Attrs: noinline optnone uwtable
define weak dso_local void @"?notifyFilesChangedInternally@DocumentManager@Core@@SAXAEBVQStringList@@@Z"() #0 {
;  call void @abort()
  ret void
}
                
; Function Attrs: noinline optnone uwtable
define weak dso_local void @"?staticMetaObject@IFindFilter@Core@@2UQMetaObject@@B"() #0 {
;  call void @abort()
  ret void
}
                
; Function Attrs: noinline optnone uwtable
define weak dso_local void @"?userData@SearchResult@Core@@QEBA?AVQVariant@@XZ"() #0 {
;  call void @abort()
  ret void
}
                
; Function Attrs: noinline optnone uwtable
define weak dso_local void @"?cancelled@SearchResult@Core@@QEAAXXZ"() #0 {
;  call void @abort()
  ret void
}
                
; Function Attrs: noinline optnone uwtable
define weak dso_local void @"?paused@SearchResult@Core@@QEAAX_N@Z"() #0 {
;  call void @abort()
  ret void
}
                
; Function Attrs: noinline optnone uwtable
define weak dso_local void @"?countChanged@SearchResult@Core@@QEAAXH@Z"() #0 {
;  call void @abort()
  ret void
}
                
; Function Attrs: noinline optnone uwtable
define weak dso_local void @"?popup@SearchResult@Core@@QEAAXXZ"() #0 {
;  call void @abort()
  ret void
}
                
; Function Attrs: noinline optnone uwtable
define weak dso_local void @"??0ReadOnlyFilesDialog@Core@@QEAA@AEBV?$QList@VFilePath@Utils@@@@PEAVQWidget@@@Z"() #0 {
;  call void @abort()
  ret void
}
                
; Function Attrs: noinline optnone uwtable
define weak dso_local void @"?setShowFailWarning@ReadOnlyFilesDialog@Core@@QEAAX_NAEBVQString@@@Z"() #0 {
;  call void @abort()
  ret void
}
                
; Function Attrs: noinline optnone uwtable
define weak dso_local void @"?exec@ReadOnlyFilesDialog@Core@@UEAAHXZ"() #0 {
;  call void @abort()
  ret void
}
                
; Function Attrs: noinline optnone uwtable
define weak dso_local void @"??1ReadOnlyFilesDialog@Core@@UEAA@XZ"() #0 {
;  call void @abort()
  ret void
}
                
; Function Attrs: noinline optnone uwtable
define weak dso_local void @"?openEditorAtSearchResult@EditorManager@Core@@SAXAEBVSearchResultItem@2@VId@Utils@@V?$QFlags@W4OpenEditorFlag@EditorManager@Core@@@@PEA_N@Z"() #0 {
;  call void @abort()
  ret void
}
                
; Function Attrs: noinline optnone uwtable
define weak dso_local void @"?restart@SearchResult@Core@@QEAAXXZ"() #0 {
;  call void @abort()
  ret void
}
                
; Function Attrs: noinline optnone uwtable
define weak dso_local void @"?setSearchAgainEnabled@SearchResult@Core@@QEAAX_N@Z"() #0 {
;  call void @abort()
  ret void
}
                
; Function Attrs: noinline optnone uwtable
define weak dso_local void @"?openedTextDocumentContents@TextDocument@TextEditor@@SA?AV?$QMap@VQString@@V1@@@XZ"() #0 {
;  call void @abort()
  ret void
}
                
; Function Attrs: noinline optnone uwtable
define weak dso_local void @"?textDocumentFlagsForFindFlags@Core@@YA?AV?$QFlags@W4FindFlag@QTextDocument@@@@V?$QFlags@W4FindFlag@Core@@@@@Z"() #0 {
;  call void @abort()
  ret void
}
                
; Function Attrs: noinline optnone uwtable
define weak dso_local void @"?addResults@SearchResult@Core@@QEAAXAEBV?$QList@VSearchResultItem@Core@@@@W4AddMode@12@@Z"() #0 {
;  call void @abort()
  ret void
}
                
; Function Attrs: noinline optnone uwtable
define weak dso_local void @"?finishSearch@SearchResult@Core@@QEAAX_N@Z"() #0 {
;  call void @abort()
  ret void
}
                
; Function Attrs: noinline optnone uwtable
define weak dso_local void @"?staticMetaObject@IFindSupport@Core@@2UQMetaObject@@B"() #0 {
;  call void @abort()
  ret void
}
                
; Function Attrs: noinline optnone uwtable
define weak dso_local void @"??0FormatDescription@TextEditor@@QEAA@W4TextStyle@1@AEBVQString@@1AEBVQColor@@W4ShowControls@01@@Z"() #0 {
;  call void @abort()
  ret void
}
                
; Function Attrs: noinline optnone uwtable
define weak dso_local void @"??0FontSettingsPage@TextEditor@@QEAA@PEAVFontSettings@1@AEBV?$vector@VFormatDescription@TextEditor@@V?$allocator@VFormatDescription@TextEditor@@@std@@@std@@@Z"() #0 {
;  call void @abort()
  ret void
}
                
; Function Attrs: noinline optnone uwtable
define weak dso_local void @"??0BehaviorSettingsPage@TextEditor@@QEAA@XZ"() #0 {
;  call void @abort()
  ret void
}
                
; Function Attrs: noinline optnone uwtable
define weak dso_local void @"??0DisplaySettingsPage@TextEditor@@QEAA@XZ"() #0 {
;  call void @abort()
  ret void
}
                
; Function Attrs: noinline optnone uwtable
define weak dso_local void @"??0HighlighterSettingsPage@TextEditor@@QEAA@XZ"() #0 {
;  call void @abort()
  ret void
}
                
; Function Attrs: noinline optnone uwtable
define weak dso_local void @"??0SnippetsSettingsPage@Internal@TextEditor@@QEAA@XZ"() #0 {
;  call void @abort()
  ret void
}
                
; Function Attrs: noinline optnone uwtable
define weak dso_local void @"??0CompletionSettingsPage@Internal@TextEditor@@QEAA@XZ"() #0 {
;  call void @abort()
  ret void
}
                
; Function Attrs: noinline optnone uwtable
define weak dso_local void @"??1SnippetsSettingsPage@Internal@TextEditor@@UEAA@XZ"() #0 {
;  call void @abort()
  ret void
}
                
; Function Attrs: noinline optnone uwtable
define weak dso_local void @"??1HighlighterSettingsPage@TextEditor@@UEAA@XZ"() #0 {
;  call void @abort()
  ret void
}
                
; Function Attrs: noinline optnone uwtable
define weak dso_local void @"??1DisplaySettingsPage@TextEditor@@UEAA@XZ"() #0 {
;  call void @abort()
  ret void
}
                
; Function Attrs: noinline optnone uwtable
define weak dso_local void @"??1BehaviorSettingsPage@TextEditor@@UEAA@XZ"() #0 {
;  call void @abort()
  ret void
}
                
; Function Attrs: noinline optnone uwtable
define weak dso_local void @"?behaviorSettings@BehaviorSettingsPage@TextEditor@@QEBAAEBVBehaviorSettings@2@XZ"() #0 {
;  call void @abort()
  ret void
}
                
; Function Attrs: noinline optnone uwtable
define weak dso_local void @"?typingSettings@BehaviorSettingsPage@TextEditor@@QEBAAEBVTypingSettings@2@XZ"() #0 {
;  call void @abort()
  ret void
}
                
; Function Attrs: noinline optnone uwtable
define weak dso_local void @"?storageSettings@BehaviorSettingsPage@TextEditor@@QEBAAEBVStorageSettings@2@XZ"() #0 {
;  call void @abort()
  ret void
}
                
; Function Attrs: noinline optnone uwtable
define weak dso_local void @"?marginSettings@DisplaySettingsPage@TextEditor@@QEBAAEBVMarginSettings@2@XZ"() #0 {
;  call void @abort()
  ret void
}
                
; Function Attrs: noinline optnone uwtable
define weak dso_local void @"?displaySettings@DisplaySettingsPage@TextEditor@@QEBAAEBVDisplaySettings@2@XZ"() #0 {
;  call void @abort()
  ret void
}
                
; Function Attrs: noinline optnone uwtable
define weak dso_local void @"?completionSettings@CompletionSettingsPage@Internal@TextEditor@@QEAAAEBVCompletionSettings@3@XZ"() #0 {
;  call void @abort()
  ret void
}
                
; Function Attrs: noinline optnone uwtable
define weak dso_local void @"?highlighterSettings@HighlighterSettingsPage@TextEditor@@QEBAAEBVHighlighterSettings@2@XZ"() #0 {
;  call void @abort()
  ret void
}
                
; Function Attrs: noinline optnone uwtable
define weak dso_local void @"?extraEncodingSettings@BehaviorSettingsPage@TextEditor@@QEBAAEBVExtraEncodingSettings@2@XZ"() #0 {
;  call void @abort()
  ret void
}
                
; Function Attrs: noinline optnone uwtable
define weak dso_local void @"?commentsSettings@CompletionSettingsPage@Internal@TextEditor@@QEAAAEBVCommentsSettings@3@XZ"() #0 {
;  call void @abort()
  ret void
}
                
; Function Attrs: noinline optnone uwtable
define weak dso_local void @"?codeStyle@BehaviorSettingsPage@TextEditor@@QEBAPEAVICodeStylePreferences@2@XZ"() #0 {
;  call void @abort()
  ret void
}
                
; Function Attrs: noinline optnone uwtable
define weak dso_local void @"?codeStylePool@BehaviorSettingsPage@TextEditor@@QEBAPEAVCodeStylePool@2@XZ"() #0 {
;  call void @abort()
  ret void
}
                
; Function Attrs: noinline optnone uwtable
define weak dso_local void @"?setFontZoom@FontSettingsPage@TextEditor@@QEAAXH@Z"() #0 {
;  call void @abort()
  ret void
}
                
; Function Attrs: noinline optnone uwtable
define weak dso_local void @"??0FormatDescription@TextEditor@@QEAA@W4TextStyle@1@AEBVQString@@1AEBVFormat@1@W4ShowControls@01@@Z"() #0 {
;  call void @abort()
  ret void
}
                
; Function Attrs: noinline optnone uwtable
define weak dso_local void @"??0FormatDescription@TextEditor@@QEAA@W4TextStyle@1@AEBVQString@@1W4ShowControls@01@@Z"() #0 {
;  call void @abort()
  ret void
}
                
; Function Attrs: noinline optnone uwtable
define weak dso_local void @"??0FormatDescription@TextEditor@@QEAA@W4TextStyle@1@AEBVQString@@1AEBVQColor@@W4UnderlineStyle@QTextCharFormat@@W4ShowControls@01@@Z"() #0 {
;  call void @abort()
  ret void
}
                
; Function Attrs: noinline optnone uwtable
define weak dso_local void @"?openedTextDocumentEncodings@TextDocument@TextEditor@@SA?AV?$QMap@VQString@@PEAVQTextCodec@@@@XZ"() #0 {
;  call void @abort()
  ret void
}
                
; Function Attrs: noinline optnone uwtable
define weak dso_local void @"?removeMarkFromMarksCache@TextDocument@TextEditor@@QEAAXPEAVTextMark@2@@Z"() #0 {
;  call void @abort()
  ret void
}
                
; Function Attrs: noinline optnone uwtable
define weak dso_local void @"??1State@KSyntaxHighlighting@@QEAA@XZ"() #0 {
;  call void @abort()
  ret void
}
                
; Function Attrs: noinline optnone uwtable
define weak dso_local void @"??0State@KSyntaxHighlighting@@QEAA@XZ"() #0 {
;  call void @abort()
  ret void
}
                
; Function Attrs: noinline optnone uwtable
define weak dso_local void @"??0Repository@KSyntaxHighlighting@@QEAA@XZ"() #0 {
;  call void @abort()
  ret void
}
                
; Function Attrs: noinline optnone uwtable
define weak dso_local void @"?addCustomSearchPath@Repository@KSyntaxHighlighting@@QEAAXAEBVQString@@@Z"() #0 {
;  call void @abort()
  ret void
}
                
; Function Attrs: noinline optnone uwtable
define weak dso_local void @"??0AbstractHighlighter@KSyntaxHighlighting@@IEAA@XZ"() #0 {
;  call void @abort()
  ret void
}
                
; Function Attrs: noinline optnone uwtable
define weak dso_local void @"??1AbstractHighlighter@KSyntaxHighlighting@@UEAA@XZ"() #0 {
;  call void @abort()
  ret void
}
                
; Function Attrs: noinline optnone uwtable
define weak dso_local void @"?definitionForName@Repository@KSyntaxHighlighting@@QEBA?AVDefinition@2@AEBVQString@@@Z"() #0 {
;  call void @abort()
  ret void
}
                
; Function Attrs: noinline optnone uwtable
define weak dso_local void @"?definitionsForFileName@Repository@KSyntaxHighlighting@@QEBA?AV?$QVector@VDefinition@KSyntaxHighlighting@@@@AEBVQString@@@Z"() #0 {
;  call void @abort()
  ret void
}
                
; Function Attrs: noinline optnone uwtable
define weak dso_local void @"?isValid@Definition@KSyntaxHighlighting@@QEBA_NXZ"() #0 {
;  call void @abort()
  ret void
}
                
; Function Attrs: noinline optnone uwtable
define weak dso_local void @"??0Definition@KSyntaxHighlighting@@QEAA@AEBV01@@Z"() #0 {
;  call void @abort()
  ret void
}
                
; Function Attrs: noinline optnone uwtable
define weak dso_local void @"??1Definition@KSyntaxHighlighting@@QEAA@XZ"() #0 {
;  call void @abort()
  ret void
}
                
; Function Attrs: noinline optnone uwtable
define weak dso_local void @"?definitionsForMimeType@Repository@KSyntaxHighlighting@@QEBA?AV?$QVector@VDefinition@KSyntaxHighlighting@@@@AEBVQString@@@Z"() #0 {
;  call void @abort()
  ret void
}
                
; Function Attrs: noinline optnone uwtable
define weak dso_local void @"?name@Definition@KSyntaxHighlighting@@QEBA?AVQString@@XZ"() #0 {
;  call void @abort()
  ret void
}
                
; Function Attrs: noinline optnone uwtable
define weak dso_local void @"??0DefinitionDownloader@KSyntaxHighlighting@@QEAA@PEAVRepository@1@PEAVQObject@@@Z"() #0 {
;  call void @abort()
  ret void
}
                
; Function Attrs: noinline optnone uwtable
define weak dso_local void @"?done@DefinitionDownloader@KSyntaxHighlighting@@QEAAXXZ"() #0 {
;  call void @abort()
  ret void
}
                
; Function Attrs: noinline optnone uwtable
define weak dso_local void @"?informationMessage@DefinitionDownloader@KSyntaxHighlighting@@QEAAXAEBVQString@@@Z"() #0 {
;  call void @abort()
  ret void
}
                
; Function Attrs: noinline optnone uwtable
define weak dso_local void @"?start@DefinitionDownloader@KSyntaxHighlighting@@QEAAXXZ"() #0 {
;  call void @abort()
  ret void
}
                
; Function Attrs: noinline optnone uwtable
define weak dso_local void @"?reload@Repository@KSyntaxHighlighting@@QEAAXXZ"() #0 {
;  call void @abort()
  ret void
}
                
; Function Attrs: noinline optnone uwtable
define weak dso_local void @"?syntaxHighlighter@TextDocument@TextEditor@@QEBAPEAVSyntaxHighlighter@2@XZ"() #0 {
;  call void @abort()
  ret void
}
                
; Function Attrs: noinline optnone uwtable
define weak dso_local void @"??1Repository@KSyntaxHighlighting@@QEAA@XZ"() #0 {
;  call void @abort()
  ret void
}
                
; Function Attrs: noinline optnone uwtable
define weak dso_local void @"?definition@AbstractHighlighter@KSyntaxHighlighting@@QEBA?AVDefinition@2@XZ"() #0 {
;  call void @abort()
  ret void
}
                
; Function Attrs: noinline optnone uwtable
define weak dso_local void @"??4State@KSyntaxHighlighting@@QEAAAEAV01@AEBV01@@Z"() #0 {
;  call void @abort()
  ret void
}
                
; Function Attrs: noinline optnone uwtable
define weak dso_local void @"?highlightLine@AbstractHighlighter@KSyntaxHighlighting@@IEAA?AVState@2@AEBVQString@@AEBV32@@Z"() #0 {
;  call void @abort()
  ret void
}
                
; Function Attrs: noinline optnone uwtable
define weak dso_local void @"??9State@KSyntaxHighlighting@@QEBA_NAEBV01@@Z"() #0 {
;  call void @abort()
  ret void
}
                
; Function Attrs: noinline optnone uwtable
define weak dso_local void @"??0State@KSyntaxHighlighting@@QEAA@AEBV01@@Z"() #0 {
;  call void @abort()
  ret void
}
                
; Function Attrs: noinline optnone uwtable
define weak dso_local void @"??0Theme@KSyntaxHighlighting@@QEAA@XZ"() #0 {
;  call void @abort()
  ret void
}
                
; Function Attrs: noinline optnone uwtable
define weak dso_local void @"?textStyle@Format@KSyntaxHighlighting@@QEBA?AW4TextStyle@Theme@2@XZ"() #0 {
;  call void @abort()
  ret void
}
                
; Function Attrs: noinline optnone uwtable
define weak dso_local void @"?hasTextColor@Format@KSyntaxHighlighting@@QEBA_NAEBVTheme@2@@Z"() #0 {
;  call void @abort()
  ret void
}
                
; Function Attrs: noinline optnone uwtable
define weak dso_local void @"?textColor@Format@KSyntaxHighlighting@@QEBA?AVQColor@@AEBVTheme@2@@Z"() #0 {
;  call void @abort()
  ret void
}
                
; Function Attrs: noinline optnone uwtable
define weak dso_local void @"?hasBackgroundColor@Format@KSyntaxHighlighting@@QEBA_NAEBVTheme@2@@Z"() #0 {
;  call void @abort()
  ret void
}
                
; Function Attrs: noinline optnone uwtable
define weak dso_local void @"?isBold@Format@KSyntaxHighlighting@@QEBA_NAEBVTheme@2@@Z"() #0 {
;  call void @abort()
  ret void
}
                
; Function Attrs: noinline optnone uwtable
define weak dso_local void @"?isItalic@Format@KSyntaxHighlighting@@QEBA_NAEBVTheme@2@@Z"() #0 {
;  call void @abort()
  ret void
}
                
; Function Attrs: noinline optnone uwtable
define weak dso_local void @"?isUnderline@Format@KSyntaxHighlighting@@QEBA_NAEBVTheme@2@@Z"() #0 {
;  call void @abort()
  ret void
}
                
; Function Attrs: noinline optnone uwtable
define weak dso_local void @"?isStrikeThrough@Format@KSyntaxHighlighting@@QEBA_NAEBVTheme@2@@Z"() #0 {
;  call void @abort()
  ret void
}
                
; Function Attrs: noinline optnone uwtable
define weak dso_local void @"??1Theme@KSyntaxHighlighting@@QEAA@XZ"() #0 {
;  call void @abort()
  ret void
}
                
; Function Attrs: noinline optnone uwtable
define weak dso_local void @"?isValid@FoldingRegion@KSyntaxHighlighting@@QEBA_NXZ"() #0 {
;  call void @abort()
  ret void
}
                
; Function Attrs: noinline optnone uwtable
define weak dso_local void @"?type@FoldingRegion@KSyntaxHighlighting@@QEBA?AW4Type@12@XZ"() #0 {
;  call void @abort()
  ret void
}
                
; Function Attrs: noinline optnone uwtable
define weak dso_local void @"?staticMetaObject@Theme@KSyntaxHighlighting@@2UQMetaObject@@B"() #0 {
;  call void @abort()
  ret void
}
                
; Function Attrs: noinline optnone uwtable
define weak dso_local void @"??8Definition@KSyntaxHighlighting@@QEBA_NAEBV01@@Z"() #0 {
;  call void @abort()
  ret void
}
                
; Function Attrs: noinline optnone uwtable
define weak dso_local void @"?staticMetaObject@DefinitionDownloader@KSyntaxHighlighting@@2UQMetaObject@@B"() #0 {
;  call void @abort()
  ret void
}
                
; Function Attrs: noinline optnone uwtable
define weak dso_local void @"?setDefinition@AbstractHighlighter@KSyntaxHighlighting@@UEAAXAEBVDefinition@2@@Z"() #0 {
;  call void @abort()
  ret void
}
                
; Function Attrs: noinline optnone uwtable
define weak dso_local void @"?setTheme@AbstractHighlighter@KSyntaxHighlighting@@UEAAXAEBVTheme@2@@Z"() #0 {
;  call void @abort()
  ret void
}
                
; Function Attrs: noinline optnone uwtable
define weak dso_local void @"??0ReadOnlyFilesDialog@Core@@QEAA@AEBVFilePath@Utils@@PEAVQWidget@@@Z"() #0 {
;  call void @abort()
  ret void
}
                
; Function Attrs: noinline optnone uwtable
define weak dso_local void @"??0FileChangeBlocker@Core@@QEAA@AEBVQString@@@Z"() #0 {
;  call void @abort()
  ret void
}
                
; Function Attrs: noinline optnone uwtable
define weak dso_local void @"??1FileChangeBlocker@Core@@QEAA@XZ"() #0 {
;  call void @abort()
  ret void
}
                
; Function Attrs: noinline optnone uwtable
define weak dso_local void @"?setContextHelpItem@TextEditorWidget@TextEditor@@QEAAXAEBVHelpItem@Core@@@Z"() #0 {
;  call void @abort()
  ret void
}
                
; Function Attrs: noinline optnone uwtable
define weak dso_local void @"?extraSelectionTooltip@TextEditorWidget@TextEditor@@QEBA?AVQString@@H@Z"() #0 {
;  call void @abort()
  ret void
}
                
; Function Attrs: noinline optnone uwtable
define weak dso_local void @"?setupFallBackEditor@TextEditorWidget@TextEditor@@QEAAXVId@Utils@@@Z"() #0 {
;  call void @abort()
  ret void
}
                
; Function Attrs: noinline optnone uwtable
define weak dso_local void @"?setHighlightCurrentLine@TextEditorWidget@TextEditor@@QEAAX_N@Z"() #0 {
;  call void @abort()
  ret void
}
                
; Function Attrs: noinline optnone uwtable
define weak dso_local void @"?setLineNumbersVisible@TextEditorWidget@TextEditor@@QEAAX_N@Z"() #0 {
;  call void @abort()
  ret void
}
                
; Function Attrs: noinline optnone uwtable
define weak dso_local void @"?setParenthesesMatchingEnabled@TextEditorWidget@TextEditor@@QEAAX_N@Z"() #0 {
;  call void @abort()
  ret void
}
                
; Function Attrs: noinline optnone uwtable
define weak dso_local void @"?position@TextEditorWidget@TextEditor@@QEBAHW4TextPositionOperation@2@H@Z"() #0 {
;  call void @abort()
  ret void
}
                
; Function Attrs: noinline optnone uwtable
define weak dso_local void @"?textAt@TextEditorWidget@TextEditor@@QEBA?AVQString@@HH@Z"() #0 {
;  call void @abort()
  ret void
}
                
; Function Attrs: noinline optnone uwtable
define weak dso_local void @"?keepAutoCompletionHighlight@TextEditorWidget@TextEditor@@QEAAX_N@Z"() #0 {
;  call void @abort()
  ret void
}
                
; Function Attrs: noinline optnone uwtable
define weak dso_local void @"?hasBlockSelection@TextEditorWidget@TextEditor@@QEBA_NXZ"() #0 {
;  call void @abort()
  ret void
}
                
; Function Attrs: noinline optnone uwtable
define weak dso_local void @"?cursorRect@TextEditorWidget@TextEditor@@QEBA?AVQRect@@H@Z"() #0 {
;  call void @abort()
  ret void
}
                
; Function Attrs: noinline optnone uwtable
define weak dso_local void @"?setCursorPosition@TextEditorWidget@TextEditor@@QEAAXH@Z"() #0 {
;  call void @abort()
  ret void
}
                
; Function Attrs: noinline optnone uwtable
define weak dso_local void @"?replace@TextEditorWidget@TextEditor@@QEAAXHAEBVQString@@@Z"() #0 {
;  call void @abort()
  ret void
}
                
; Function Attrs: noinline optnone uwtable
define weak dso_local void @"?setAutoCompleteSkipPosition@TextEditorWidget@TextEditor@@QEAAXAEBVQTextCursor@@@Z"() #0 {
;  call void @abort()
  ret void
}
                
; Function Attrs: noinline optnone uwtable
define weak dso_local void @"?insertCodeSnippet@TextEditorWidget@TextEditor@@QEAAXAEBVQTextCursor@@AEBVQString@@@Z"() #0 {
;  call void @abort()
  ret void
}
                
; Function Attrs: noinline optnone uwtable
define weak dso_local void @"?autoIndent@TextDocument@TextEditor@@QEAAXAEBVQTextCursor@@VQChar@@H@Z"() #0 {
;  call void @abort()
  ret void
}
                
; Function Attrs: noinline optnone uwtable
define weak dso_local void @"??0TabSettingsWidget@TextEditor@@QEAA@PEAVQWidget@@@Z"() #0 {
;  call void @abort()
  ret void
}
                
; Function Attrs: noinline optnone uwtable
define weak dso_local void @"?setTabSettings@TabSettingsWidget@TextEditor@@QEAAXAEBVTabSettings@2@@Z"() #0 {
;  call void @abort()
  ret void
}
                
; Function Attrs: noinline optnone uwtable
define weak dso_local void @"??0CodeStyleSelectorWidget@TextEditor@@QEAA@PEAVICodeStylePreferencesFactory@1@PEAVQWidget@@@Z"() #0 {
;  call void @abort()
  ret void
}
                
; Function Attrs: noinline optnone uwtable
define weak dso_local void @"?setCodeStyle@CodeStyleSelectorWidget@TextEditor@@QEAAXPEAVICodeStylePreferences@2@@Z"() #0 {
;  call void @abort()
  ret void
}
                
; Function Attrs: noinline optnone uwtable
define weak dso_local void @"?setCodeStyle@TextEditorWidget@TextEditor@@QEAAXPEAVICodeStylePreferences@2@@Z"() #0 {
;  call void @abort()
  ret void
}
                
; Function Attrs: noinline optnone uwtable
define weak dso_local void @"?indenter@TextDocument@TextEditor@@QEBAPEAVIndenter@2@XZ"() #0 {
;  call void @abort()
  ret void
}
                
; Function Attrs: noinline optnone uwtable
define weak dso_local void @"?duplicateMimeData@TextEditorWidget@TextEditor@@SAPEAVQMimeData@@PEBV3@@Z"() #0 {
;  call void @abort()
  ret void
}
                
; Function Attrs: noinline optnone uwtable
define weak dso_local void @"?textDocumentForFilePath@TextDocument@TextEditor@@SAPEAV12@AEBVFilePath@Utils@@@Z"() #0 {
;  call void @abort()
  ret void
}
                
; Function Attrs: noinline optnone uwtable
define weak dso_local void @"?fontSettings@TextDocument@TextEditor@@QEBAAEBVFontSettings@2@XZ"() #0 {
;  call void @abort()
  ret void
}
                
; Function Attrs: noinline optnone uwtable
define weak dso_local void @"?moveMark@TextDocument@TextEditor@@QEAAXPEAVTextMark@2@H@Z"() #0 {
;  call void @abort()
  ret void
}
                
; Function Attrs: noinline optnone uwtable
define weak dso_local void @"?updateMark@TextDocument@TextEditor@@QEAAXPEAVTextMark@2@@Z"() #0 {
;  call void @abort()
  ret void
}
                
; Function Attrs: noinline optnone uwtable
define weak dso_local void @"?marks@TextDocument@TextEditor@@QEBA?AV?$QList@PEAVTextMark@TextEditor@@@@XZ"() #0 {
;  call void @abort()
  ret void
}
                
; Function Attrs: noinline optnone uwtable
define weak dso_local void @"?instance@TextEditorPlugin@Internal@TextEditor@@SAPEAV123@XZ"() #0 {
;  call void @abort()
  ret void
}
                
; Function Attrs: noinline optnone uwtable
define weak dso_local void @"?qHash@@YAIAEBVQColor@@@Z"() #0 {
;  call void @abort()
  ret void
}
                
; Function Attrs: noinline optnone uwtable
define weak dso_local void @"?currentTextEditorWidget@TextEditorWidget@TextEditor@@SAPEAV12@XZ"() #0 {
;  call void @abort()
  ret void
}
                
; Function Attrs: noinline optnone uwtable
define weak dso_local void @"?executable@Command@TextEditor@@QEBA?AVQString@@XZ"() #0 {
;  call void @abort()
  ret void
}
                
; Function Attrs: noinline optnone uwtable
define weak dso_local void @"?processing@Command@TextEditor@@QEBA?AW4Processing@12@XZ"() #0 {
;  call void @abort()
  ret void
}
                
; Function Attrs: noinline optnone uwtable
define weak dso_local void @"?options@Command@TextEditor@@QEBA?AVQStringList@@XZ"() #0 {
;  call void @abort()
  ret void
}
                
; Function Attrs: noinline optnone uwtable
define weak dso_local void @"?pipeAddsNewline@Command@TextEditor@@QEBA_NXZ"() #0 {
;  call void @abort()
  ret void
}
                
; Function Attrs: noinline optnone uwtable
define weak dso_local void @"?returnsCRLF@Command@TextEditor@@QEBA_NXZ"() #0 {
;  call void @abort()
  ret void
}
                
; Function Attrs: noinline optnone uwtable
define weak dso_local void @"??0BaseTextEditor@TextEditor@@QEAA@XZ"() #0 {
;  call void @abort()
  ret void
}
                
; Function Attrs: noinline optnone uwtable
define weak dso_local void @"?addContext@BaseTextEditor@TextEditor@@QEAAXVId@Utils@@@Z"() #0 {
;  call void @abort()
  ret void
}
                
; Function Attrs: noinline optnone uwtable
define weak dso_local void @"??1BaseTextEditor@TextEditor@@UEAA@XZ"() #0 {
;  call void @abort()
  ret void
}
                
; Function Attrs: noinline optnone uwtable
define weak dso_local void @"?setSyntaxHighlighter@TextDocument@TextEditor@@QEAAXPEAVSyntaxHighlighter@2@@Z"() #0 {
;  call void @abort()
  ret void
}
                
; Function Attrs: noinline optnone uwtable
define weak dso_local void @"?setIndenter@TextDocument@TextEditor@@QEAAXPEAVIndenter@2@@Z"() #0 {
;  call void @abort()
  ret void
}
                
; Function Attrs: noinline optnone uwtable
define weak dso_local void @"?setAutoCompleter@TextEditorWidget@TextEditor@@QEAAXPEAVAutoCompleter@2@@Z"() #0 {
;  call void @abort()
  ret void
}
                
; Function Attrs: noinline optnone uwtable
define weak dso_local void @"?contextHelp@BaseTextEditor@TextEditor@@UEBAXAEBV?$function@$$A6AXAEBVHelpItem@Core@@@Z@std@@@Z"() #0 {
;  call void @abort()
  ret void
}
                
; Function Attrs: noinline optnone uwtable
define weak dso_local void @"?setContextHelp@BaseTextEditor@TextEditor@@UEAAXAEBVHelpItem@Core@@@Z"() #0 {
;  call void @abort()
  ret void
}
                
; Function Attrs: noinline optnone uwtable
define weak dso_local void @"?document@BaseTextEditor@TextEditor@@UEBAPEAVIDocument@Core@@XZ"() #0 {
;  call void @abort()
  ret void
}
                
; Function Attrs: noinline optnone uwtable
define weak dso_local void @"?duplicate@BaseTextEditor@TextEditor@@UEAAPEAVIEditor@Core@@XZ"() #0 {
;  call void @abort()
  ret void
}
                
; Function Attrs: noinline optnone uwtable
define weak dso_local void @"?saveState@BaseTextEditor@TextEditor@@UEBA?AVQByteArray@@XZ"() #0 {
;  call void @abort()
  ret void
}
                
; Function Attrs: noinline optnone uwtable
define weak dso_local void @"?restoreState@BaseTextEditor@TextEditor@@UEAAXAEBVQByteArray@@@Z"() #0 {
;  call void @abort()
  ret void
}
                
; Function Attrs: noinline optnone uwtable
define weak dso_local void @"?currentLine@BaseTextEditor@TextEditor@@UEBAHXZ"() #0 {
;  call void @abort()
  ret void
}
                
; Function Attrs: noinline optnone uwtable
define weak dso_local void @"?currentColumn@BaseTextEditor@TextEditor@@UEBAHXZ"() #0 {
;  call void @abort()
  ret void
}
                
; Function Attrs: noinline optnone uwtable
define weak dso_local void @"?gotoLine@BaseTextEditor@TextEditor@@UEAAXHH_N@Z"() #0 {
;  call void @abort()
  ret void
}
                
; Function Attrs: noinline optnone uwtable
define weak dso_local void @"?toolBar@BaseTextEditor@TextEditor@@UEAAPEAVQWidget@@XZ"() #0 {
;  call void @abort()
  ret void
}
                
; Function Attrs: noinline optnone uwtable
define weak dso_local void @"?position@BaseTextEditor@TextEditor@@UEBAHW4TextPositionOperation@2@H@Z"() #0 {
;  call void @abort()
  ret void
}
                
; Function Attrs: noinline optnone uwtable
define weak dso_local void @"?convertPosition@BaseTextEditor@TextEditor@@UEBAXHPEAH0@Z"() #0 {
;  call void @abort()
  ret void
}
                
; Function Attrs: noinline optnone uwtable
define weak dso_local void @"?selectedText@BaseTextEditor@TextEditor@@UEBA?AVQString@@XZ"() #0 {
;  call void @abort()
  ret void
}
                
; Function Attrs: noinline optnone uwtable
define weak dso_local void @"?remove@BaseTextEditor@TextEditor@@UEAAXH@Z"() #0 {
;  call void @abort()
  ret void
}
                
; Function Attrs: noinline optnone uwtable
define weak dso_local void @"?insert@BaseTextEditor@TextEditor@@UEAAXAEBVQString@@@Z"() #0 {
;  call void @abort()
  ret void
}
                
; Function Attrs: noinline optnone uwtable
define weak dso_local void @"?replace@BaseTextEditor@TextEditor@@UEAAXHAEBVQString@@@Z"() #0 {
;  call void @abort()
  ret void
}
                
; Function Attrs: noinline optnone uwtable
define weak dso_local void @"?setCursorPosition@BaseTextEditor@TextEditor@@UEAAXH@Z"() #0 {
;  call void @abort()
  ret void
}
                
; Function Attrs: noinline optnone uwtable
define weak dso_local void @"?select@BaseTextEditor@TextEditor@@UEAAXH@Z"() #0 {
;  call void @abort()
  ret void
}
                
; Function Attrs: noinline optnone uwtable
define weak dso_local void @"?tabSettingsChanged@TextDocument@TextEditor@@QEAAXXZ"() #0 {
;  call void @abort()
  ret void
}
                
; Function Attrs: noinline optnone uwtable
define weak dso_local void @"??1TextDocument@TextEditor@@UEAA@XZ"() #0 {
;  call void @abort()
  ret void
}
                
; Function Attrs: noinline optnone uwtable
define weak dso_local void @"?instance@CppEditorPlugin@Internal@CppEditor@@SAPEAV123@XZ"() #0 {
;  call void @abort()
  ret void
}
                
; Function Attrs: noinline optnone uwtable
define weak dso_local void @"?quickFixProvider@CppEditorPlugin@Internal@CppEditor@@QEBAPEAVCppQuickFixAssistProvider@23@XZ"() #0 {
;  call void @abort()
  ret void
}
                
; Function Attrs: noinline optnone uwtable
define weak dso_local void @"?applyFontSettings@TextDocument@TextEditor@@MEAAXXZ"() #0 {
;  call void @abort()
  ret void
}
                
; Function Attrs: noinline optnone uwtable
define weak dso_local void @"?tabSettings@TextDocument@TextEditor@@UEBA?AVTabSettings@2@XZ"() #0 {
;  call void @abort()
  ret void
}
                
; Function Attrs: noinline optnone uwtable
define weak dso_local void @"?storageSettings@TextDocument@TextEditor@@QEBAAEBVStorageSettings@2@XZ"() #0 {
;  call void @abort()
  ret void
}
                
; Function Attrs: noinline optnone uwtable
define weak dso_local void @"?setStorageSettings@TextDocument@TextEditor@@QEAAXAEBVStorageSettings@2@@Z"() #0 {
;  call void @abort()
  ret void
}
                
; Function Attrs: noinline optnone uwtable
define weak dso_local void @"?save@TextDocument@TextEditor@@UEAA_NPEAVQString@@AEBV3@_N@Z"() #0 {
;  call void @abort()
  ret void
}
                
; Function Attrs: noinline optnone uwtable
define weak dso_local void @"?open@TextDocument@TextEditor@@UEAA?AW4OpenResult@IDocument@Core@@PEAVQString@@AEBV6@1@Z"() #0 {
;  call void @abort()
  ret void
}
                
; Function Attrs: noinline optnone uwtable
define weak dso_local void @"?contents@TextDocument@TextEditor@@UEBA?AVQByteArray@@XZ"() #0 {
;  call void @abort()
  ret void
}
                
; Function Attrs: noinline optnone uwtable
define weak dso_local void @"?setContents@TextDocument@TextEditor@@UEAA_NAEBVQByteArray@@@Z"() #0 {
;  call void @abort()
  ret void
}
                
; Function Attrs: noinline optnone uwtable
define weak dso_local void @"?setFilePath@TextDocument@TextEditor@@UEAAXAEBVFilePath@Utils@@@Z"() #0 {
;  call void @abort()
  ret void
}
                
; Function Attrs: noinline optnone uwtable
define weak dso_local void @"?isFileReadOnly@TextDocument@TextEditor@@UEBA_NXZ"() #0 {
;  call void @abort()
  ret void
}
                
; Function Attrs: noinline optnone uwtable
define weak dso_local void @"?fallbackSaveAsPath@TextDocument@TextEditor@@UEBA?AVQString@@XZ"() #0 {
;  call void @abort()
  ret void
}
                
; Function Attrs: noinline optnone uwtable
define weak dso_local void @"?fallbackSaveAsFileName@TextDocument@TextEditor@@UEBA?AVQString@@XZ"() #0 {
;  call void @abort()
  ret void
}
                
; Function Attrs: noinline optnone uwtable
define weak dso_local void @"?shouldAutoSave@TextDocument@TextEditor@@UEBA_NXZ"() #0 {
;  call void @abort()
  ret void
}
                
; Function Attrs: noinline optnone uwtable
define weak dso_local void @"?isModified@TextDocument@TextEditor@@UEBA_NXZ"() #0 {
;  call void @abort()
  ret void
}
                
; Function Attrs: noinline optnone uwtable
define weak dso_local void @"?isSaveAsAllowed@TextDocument@TextEditor@@UEBA_NXZ"() #0 {
;  call void @abort()
  ret void
}
                
; Function Attrs: noinline optnone uwtable
define weak dso_local void @"?reload@TextDocument@TextEditor@@UEAA_NPEAVQString@@W4ReloadFlag@IDocument@Core@@W4ChangeType@56@@Z"() #0 {
;  call void @abort()
  ret void
}
                
; Function Attrs: noinline optnone uwtable
define weak dso_local void @"?checkPermissions@TextDocument@TextEditor@@UEAAXXZ"() #0 {
;  call void @abort()
  ret void
}
                
; Function Attrs: noinline optnone uwtable
define weak dso_local void @"?plainText@TextDocument@TextEditor@@UEBA?AVQString@@XZ"() #0 {
;  call void @abort()
  ret void
}
                
; Function Attrs: noinline optnone uwtable
define weak dso_local void @"?textAt@TextDocument@TextEditor@@UEBA?AVQString@@HH@Z"() #0 {
;  call void @abort()
  ret void
}
                
; Function Attrs: noinline optnone uwtable
define weak dso_local void @"?characterAt@TextDocument@TextEditor@@UEBA?AVQChar@@H@Z"() #0 {
;  call void @abort()
  ret void
}
                
; Function Attrs: noinline optnone uwtable
define weak dso_local void @"?reload@TextDocument@TextEditor@@UEAA_NPEAVQString@@@Z"() #0 {
;  call void @abort()
  ret void
}
                
; Function Attrs: noinline optnone uwtable
define weak dso_local void @"?triggerPendingUpdates@TextDocument@TextEditor@@UEAAXXZ"() #0 {
;  call void @abort()
  ret void
}
                
; Function Attrs: noinline optnone uwtable
define weak dso_local void @"?setLanguageSettingsId@TextEditorWidget@TextEditor@@QEAAXVId@Utils@@@Z"() #0 {
;  call void @abort()
  ret void
}
                
; Function Attrs: noinline optnone uwtable
define weak dso_local void @"?outlineSortingChanged@CppEditorPlugin@Internal@CppEditor@@QEAAX_N@Z"() #0 {
;  call void @abort()
  ret void
}
                
; Function Attrs: noinline optnone uwtable
define weak dso_local void @"?insertExtraToolBarWidget@TextEditorWidget@TextEditor@@QEAAPEAVQAction@@W4Side@12@PEAVQWidget@@@Z"() #0 {
;  call void @abort()
  ret void
}
                
; Function Attrs: noinline optnone uwtable
define weak dso_local void @"?staticMetaObject@CppEditorPlugin@Internal@CppEditor@@2UQMetaObject@@B"() #0 {
;  call void @abort()
  ret void
}
                
; Function Attrs: noinline optnone uwtable
define weak dso_local void @"?CodeWarningsSelection@TextEditorWidget@TextEditor@@2VId@Utils@@A"() #0 {
;  call void @abort()
  ret void
}
                
; Function Attrs: noinline optnone uwtable
define weak dso_local void @"?setExtraSelections@TextEditorWidget@TextEditor@@QEAAXVId@Utils@@AEBV?$QList@UExtraSelection@QTextEdit@@@@@Z"() #0 {
;  call void @abort()
  ret void
}
                
; Function Attrs: noinline optnone uwtable
define weak dso_local void @"?refactorMarkers@TextEditorWidget@TextEditor@@QEBA?AV?$QList@URefactorMarker@TextEditor@@@@XZ"() #0 {
;  call void @abort()
  ret void
}
                
; Function Attrs: noinline optnone uwtable
define weak dso_local void @"?setRefactorMarkers@TextEditorWidget@TextEditor@@QEAAXAEBV?$QList@URefactorMarker@TextEditor@@@@@Z"() #0 {
;  call void @abort()
  ret void
}
                
; Function Attrs: noinline optnone uwtable
define weak dso_local void @"?setIfdefedOutBlocks@TextEditorWidget@TextEditor@@QEAAXAEBV?$QList@VBlockRange@TextEditor@@@@@Z"() #0 {
;  call void @abort()
  ret void
}
                
; Function Attrs: noinline optnone uwtable
define weak dso_local void @"?extraSelections@TextEditorWidget@TextEditor@@QEBA?AV?$QList@UExtraSelection@QTextEdit@@@@VId@Utils@@@Z"() #0 {
;  call void @abort()
  ret void
}
                
; Function Attrs: noinline optnone uwtable
define weak dso_local void @"?behaviorSettings@TextEditorWidget@TextEditor@@QEBAAEBVBehaviorSettings@2@XZ"() #0 {
;  call void @abort()
  ret void
}
                
; Function Attrs: noinline optnone uwtable
define weak dso_local void @"?alwaysOpenLinksInNextSplit@TextEditorWidget@TextEditor@@QEBA_NXZ"() #0 {
;  call void @abort()
  ret void
}
                
; Function Attrs: noinline optnone uwtable
define weak dso_local void @"?openLink@TextEditorWidget@TextEditor@@IEAA_NAEBULink@Utils@@_N@Z"() #0 {
;  call void @abort()
  ret void
}
                
; Function Attrs: noinline optnone uwtable
define weak dso_local void @"?appendStandardContextMenuActions@TextEditorWidget@TextEditor@@QEAAXPEAVQMenu@@@Z"() #0 {
;  call void @abort()
  ret void
}
                
; Function Attrs: noinline optnone uwtable
define weak dso_local void @"??0CppPreProcessorDialog@Internal@CppEditor@@QEAA@AEBVQString@@PEAVQWidget@@@Z"() #0 {
;  call void @abort()
  ret void
}
                
; Function Attrs: noinline optnone uwtable
define weak dso_local void @"?exec@CppPreProcessorDialog@Internal@CppEditor@@UEAAHXZ"() #0 {
;  call void @abort()
  ret void
}
                
; Function Attrs: noinline optnone uwtable
define weak dso_local void @"?extraPreprocessorDirectives@CppPreProcessorDialog@Internal@CppEditor@@QEBA?AVQString@@XZ"() #0 {
;  call void @abort()
  ret void
}
                
; Function Attrs: noinline optnone uwtable
define weak dso_local void @"??1CppPreProcessorDialog@Internal@CppEditor@@UEAA@XZ"() #0 {
;  call void @abort()
  ret void
}
                
; Function Attrs: noinline optnone uwtable
define weak dso_local void @"?invokeAssist@TextEditorWidget@TextEditor@@QEAAXW4AssistKind@2@PEAVIAssistProvider@2@@Z"() #0 {
;  call void @abort()
  ret void
}
                
; Function Attrs: noinline optnone uwtable
define weak dso_local void @"?addResult@SearchResult@Core@@QEAAXAEBVQString@@0VTextRange@Search@2@AEBVQVariant@@W4Style@SearchResultColor@2@@Z"() #0 {
;  call void @abort()
  ret void
}
                
; Function Attrs: noinline optnone uwtable
define weak dso_local void @"?CodeSemanticsSelection@TextEditorWidget@TextEditor@@2VId@Utils@@A"() #0 {
;  call void @abort()
  ret void
}
                
; Function Attrs: noinline optnone uwtable
define weak dso_local void @"??0TextEditorLinkLabel@TextEditor@@QEAA@PEAVQWidget@@@Z"() #0 {
;  call void @abort()
  ret void
}
                
; Function Attrs: noinline optnone uwtable
define weak dso_local void @"?createSearchableWrapper@ItemViewFind@Core@@SAPEAVQFrame@@PEAV12@W4ColorOption@12@@Z"() #0 {
;  call void @abort()
  ret void
}
                
; Function Attrs: noinline optnone uwtable
define weak dso_local void @"?includeHierarchyRequested@CppEditorPlugin@Internal@CppEditor@@QEAAXXZ"() #0 {
;  call void @abort()
  ret void
}
                
; Function Attrs: noinline optnone uwtable
define weak dso_local void @"?setLink@TextEditorLinkLabel@TextEditor@@QEAAXULink@Utils@@@Z"() #0 {
;  call void @abort()
  ret void
}
                
; Function Attrs: noinline optnone uwtable
define weak dso_local void @"??0ItemViewFind@Core@@QEAA@PEAVQAbstractItemView@@HW4FetchOption@01@@Z"() #0 {
;  call void @abort()
  ret void
}
                
; Function Attrs: noinline optnone uwtable
define weak dso_local void @"?findIncremental@ItemViewFind@Core@@UEAA?AW4Result@IFindSupport@2@AEBVQString@@V?$QFlags@W4FindFlag@Core@@@@@Z"() #0 {
;  call void @abort()
  ret void
}
                
; Function Attrs: noinline optnone uwtable
define weak dso_local void @"?findStep@ItemViewFind@Core@@UEAA?AW4Result@IFindSupport@2@AEBVQString@@V?$QFlags@W4FindFlag@Core@@@@@Z"() #0 {
;  call void @abort()
  ret void
}
                
; Function Attrs: noinline optnone uwtable
define weak dso_local void @"??1ItemViewFind@Core@@UEAA@XZ"() #0 {
;  call void @abort()
  ret void
}
                
; Function Attrs: noinline optnone uwtable
define weak dso_local void @"?metaObject@ItemViewFind@Core@@UEBAPEBUQMetaObject@@XZ"() #0 {
;  call void @abort()
  ret void
}
                
; Function Attrs: noinline optnone uwtable
define weak dso_local void @"?qt_metacast@ItemViewFind@Core@@UEAAPEAXPEBD@Z"() #0 {
;  call void @abort()
  ret void
}
                
; Function Attrs: noinline optnone uwtable
define weak dso_local void @"?qt_metacall@ItemViewFind@Core@@UEAAHW4Call@QMetaObject@@HPEAPEAX@Z"() #0 {
;  call void @abort()
  ret void
}
                
; Function Attrs: noinline optnone uwtable
define weak dso_local void @"?supportsReplace@ItemViewFind@Core@@UEBA_NXZ"() #0 {
;  call void @abort()
  ret void
}
                
; Function Attrs: noinline optnone uwtable
define weak dso_local void @"?supportedFindFlags@ItemViewFind@Core@@UEBA?AV?$QFlags@W4FindFlag@Core@@@@XZ"() #0 {
;  call void @abort()
  ret void
}
                
; Function Attrs: noinline optnone uwtable
define weak dso_local void @"?resetIncrementalSearch@ItemViewFind@Core@@UEAAXXZ"() #0 {
;  call void @abort()
  ret void
}
                
; Function Attrs: noinline optnone uwtable
define weak dso_local void @"?clearHighlights@ItemViewFind@Core@@UEAAXXZ"() #0 {
;  call void @abort()
  ret void
}
                
; Function Attrs: noinline optnone uwtable
define weak dso_local void @"?currentFindString@ItemViewFind@Core@@UEBA?AVQString@@XZ"() #0 {
;  call void @abort()
  ret void
}
                
; Function Attrs: noinline optnone uwtable
define weak dso_local void @"?completedFindString@ItemViewFind@Core@@UEBA?AVQString@@XZ"() #0 {
;  call void @abort()
  ret void
}
                
; Function Attrs: noinline optnone uwtable
define weak dso_local void @"?highlightAll@ItemViewFind@Core@@UEAAXAEBVQString@@V?$QFlags@W4FindFlag@Core@@@@@Z"() #0 {
;  call void @abort()
  ret void
}
                
; Function Attrs: noinline optnone uwtable
define weak dso_local void @"?replace@IFindSupport@Core@@UEAAXAEBVQString@@0V?$QFlags@W4FindFlag@Core@@@@@Z"() #0 {
;  call void @abort()
  ret void
}
                
; Function Attrs: noinline optnone uwtable
define weak dso_local void @"?replaceStep@IFindSupport@Core@@UEAA_NAEBVQString@@0V?$QFlags@W4FindFlag@Core@@@@@Z"() #0 {
;  call void @abort()
  ret void
}
                
; Function Attrs: noinline optnone uwtable
define weak dso_local void @"?replaceAll@IFindSupport@Core@@UEAAHAEBVQString@@0V?$QFlags@W4FindFlag@Core@@@@@Z"() #0 {
;  call void @abort()
  ret void
}
                
; Function Attrs: noinline optnone uwtable
define weak dso_local void @"?correspondingHeaderOrSource@CppTools@@YA?AVQString@@AEBV2@PEA_NW4CacheUsage@1@@Z"() #0 {
;  call void @abort()
  ret void
}
                
; Function Attrs: noinline optnone uwtable
define weak dso_local void @"?cutForwardNavigationHistory@EditorManager@Core@@SAXXZ"() #0 {
;  call void @abort()
  ret void
}
                
; Function Attrs: noinline optnone uwtable
define weak dso_local void @"?gotoLine@TextEditorWidget@TextEditor@@QEAAXHH_N0@Z"() #0 {
;  call void @abort()
  ret void
}
                
; Function Attrs: noinline optnone uwtable
define weak dso_local void @"??0CppQuickFixSettingsWidget@Internal@CppEditor@@QEAA@PEAVQWidget@@@Z"() #0 {
;  call void @abort()
  ret void
}
                
; Function Attrs: noinline optnone uwtable
define weak dso_local void @"?loadSettings@CppQuickFixSettingsWidget@Internal@CppEditor@@QEAAXPEAVCppQuickFixSettings@3@@Z"() #0 {
;  call void @abort()
  ret void
}
                
; Function Attrs: noinline optnone uwtable
define weak dso_local void @"?saveSettings@CppQuickFixSettingsWidget@Internal@CppEditor@@QEAAXPEAVCppQuickFixSettings@3@@Z"() #0 {
;  call void @abort()
  ret void
}
                
; Function Attrs: noinline optnone uwtable
define weak dso_local void @"?typeHierarchyRequested@CppEditorPlugin@Internal@CppEditor@@QEAAXXZ"() #0 {
;  call void @abort()
  ret void
}
                
; Function Attrs: noinline optnone uwtable
define weak dso_local void @"?UnusedSymbolSelection@TextEditorWidget@TextEditor@@2VId@Utils@@A"() #0 {
;  call void @abort()
  ret void
}
                
; Function Attrs: noinline optnone uwtable
define weak dso_local void @"?licenseTemplate@CppFileSettings@Internal@CppTools@@SA?AVQString@@XZ"() #0 {
;  call void @abort()
  ret void
}
                
; Function Attrs: noinline optnone uwtable
define weak dso_local void @"?usePragmaOnce@CppToolsPlugin@Internal@CppTools@@SA_NXZ"() #0 {
;  call void @abort()
  ret void
}
                
; Function Attrs: noinline optnone uwtable
define weak dso_local void @"?instance@CppToolsPlugin@Internal@CppTools@@SAPEAV123@XZ"() #0 {
;  call void @abort()
  ret void
}
                
; Function Attrs: noinline optnone uwtable
define weak dso_local void @"?codeModelSettings@CppToolsPlugin@Internal@CppTools@@QEAAPEAVCppCodeModelSettings@3@XZ"() #0 {
;  call void @abort()
  ret void
}
                
; Function Attrs: noinline optnone uwtable
define weak dso_local void @"?sync@ClangDiagnosticConfigsWidget@CppTools@@QEAAXXZ"() #0 {
;  call void @abort()
  ret void
}
                
; Function Attrs: noinline optnone uwtable
define weak dso_local void @"?configs@ClangDiagnosticConfigsWidget@CppTools@@QEBA?AV?$QVector@VClangDiagnosticConfig@CppTools@@@@XZ"() #0 {
;  call void @abort()
  ret void
}
                
; Function Attrs: noinline optnone uwtable
define weak dso_local void @"?currentConfig@ClangDiagnosticConfigsWidget@CppTools@@QEBA?BVClangDiagnosticConfig@2@XZ"() #0 {
;  call void @abort()
  ret void
}
                
; Function Attrs: noinline optnone uwtable
define weak dso_local void @"?prepareSearch@ILocatorFilter@Core@@UEAAXAEBVQString@@@Z"() #0 {
;  call void @abort()
  ret void
}
                
; Function Attrs: noinline optnone uwtable
define weak dso_local void @"??0CppCodeStylePreferencesWidget@Internal@CppTools@@QEAA@PEAVQWidget@@@Z"() #0 {
;  call void @abort()
  ret void
}
                
; Function Attrs: noinline optnone uwtable
define weak dso_local void @"?setCodeStyle@CppCodeStylePreferencesWidget@Internal@CppTools@@QEAAXPEAVCppCodeStylePreferences@3@@Z"() #0 {
;  call void @abort()
  ret void
}
                
; Function Attrs: noinline optnone uwtable
define weak dso_local void @"?createRegExp@ILocatorFilter@Core@@SA?AVQRegularExpression@@AEBVQString@@W4CaseSensitivity@Qt@@@Z"() #0 {
;  call void @abort()
  ret void
}
                
; Function Attrs: noinline optnone uwtable
define weak dso_local void @"?highlightInfo@ILocatorFilter@Core@@SA?AUHighlightInfo@LocatorFilterEntry@2@AEBVQRegularExpressionMatch@@W4DataType@342@@Z"() #0 {
;  call void @abort()
  ret void
}
                
; Function Attrs: noinline optnone uwtable
define weak dso_local void @"?setAdditionalReplaceWidget@SearchResult@Core@@QEAAXPEAVQWidget@@@Z"() #0 {
;  call void @abort()
  ret void
}
                
; Function Attrs: noinline optnone uwtable
define weak dso_local void @"?additionalReplaceWidget@SearchResult@Core@@QEBAPEAVQWidget@@XZ"() #0 {
;  call void @abort()
  ret void
}
                
; Function Attrs: noinline optnone uwtable
define weak dso_local void @"?fromSettings@CppFileSettings@Internal@CppTools@@QEAAXPEAVQSettings@@@Z"() #0 {
;  call void @abort()
  ret void
}
                
; Function Attrs: noinline optnone uwtable
define weak dso_local void @"?renameFile@ProjectExplorerPlugin@ProjectExplorer@@SAXPEAVNode@2@AEBVQString@@@Z"() #0 {
;  call void @abort()
  ret void
}
                
; Function Attrs: noinline optnone uwtable
define weak dso_local void @"?addResult@SearchResult@Core@@QEAAXAEBVQString@@H0HHAEBVQVariant@@W4Style@SearchResultColor@2@@Z"() #0 {
;  call void @abort()
  ret void
}
                
; Function Attrs: noinline optnone uwtable
define weak dso_local void @"??1Iterator@BaseFileFilter@Core@@UEAA@XZ"() #0 {
;  call void @abort()
  ret void
}
                
; Function Attrs: noinline optnone uwtable
define weak dso_local void @"??0BaseFileFilter@Core@@QEAA@XZ"() #0 {
;  call void @abort()
  ret void
}
                
; Function Attrs: noinline optnone uwtable
define weak dso_local void @"?instance@ProjectExplorerPlugin@ProjectExplorer@@SAPEAV12@XZ"() #0 {
;  call void @abort()
  ret void
}
                
; Function Attrs: noinline optnone uwtable
define weak dso_local void @"?fileListChanged@ProjectExplorerPlugin@ProjectExplorer@@QEAAXXZ"() #0 {
;  call void @abort()
  ret void
}
                
; Function Attrs: noinline optnone uwtable
define weak dso_local void @"??1BaseFileFilter@Core@@UEAA@XZ"() #0 {
;  call void @abort()
  ret void
}
                
; Function Attrs: noinline optnone uwtable
define weak dso_local void @"?staticMetaObject@ProjectExplorerPlugin@ProjectExplorer@@2UQMetaObject@@B"() #0 {
;  call void @abort()
  ret void
}
                
; Function Attrs: noinline optnone uwtable
define weak dso_local void @"?setFileIterator@BaseFileFilter@Core@@IEAAXPEAVIterator@12@@Z"() #0 {
;  call void @abort()
  ret void
}
                
; Function Attrs: noinline optnone uwtable
define weak dso_local void @"?prepareSearch@BaseFileFilter@Core@@UEAAXAEBVQString@@@Z"() #0 {
;  call void @abort()
  ret void
}
                
; Function Attrs: noinline optnone uwtable
define weak dso_local void @"?matchesFor@BaseFileFilter@Core@@UEAA?AV?$QList@ULocatorFilterEntry@Core@@@@AEAV?$QFutureInterface@ULocatorFilterEntry@Core@@@@AEBVQString@@@Z"() #0 {
;  call void @abort()
  ret void
}
                
; Function Attrs: noinline optnone uwtable
define weak dso_local void @"?accept@BaseFileFilter@Core@@UEBAXULocatorFilterEntry@2@PEAVQString@@PEAH2@Z"() #0 {
;  call void @abort()
  ret void
}
                
; Function Attrs: noinline optnone uwtable
define weak dso_local void @"?caseSensitivity@ILocatorFilter@Core@@SA?AW4CaseSensitivity@Qt@@AEBVQString@@@Z"() #0 {
;  call void @abort()
  ret void
}
                
; Function Attrs: noinline optnone uwtable
define weak dso_local void @"?visibleEditors@EditorManager@Core@@SA?AV?$QList@PEAVIEditor@Core@@@@XZ"() #0 {
;  call void @abort()
  ret void
}
                
; Function Attrs: noinline optnone uwtable
define weak dso_local void @"?incrementalApplyExtraAdditionalFormats@SemanticHighlighter@TextEditor@@YAXPEAVSyntaxHighlighter@2@AEBV?$QFuture@VHighlightingResult@TextEditor@@@@HHAEBV?$QHash@HVQTextCharFormat@@@@AEBV?$function@$$A6A?BV?$QList@U?$pair@VHighlightingResult@TextEditor@@VQTextBlock@@@std@@@@AEBVHighlightingResult@TextEditor@@AEBVQTextBlock@@@Z@std@@@Z"() #0 {
;  call void @abort()
  ret void
}
                
; Function Attrs: noinline optnone uwtable
define weak dso_local void @"?clearExtraAdditionalFormatsUntilEnd@SemanticHighlighter@TextEditor@@YAXPEAVSyntaxHighlighter@2@AEBV?$QFuture@VHighlightingResult@TextEditor@@@@@Z"() #0 {
;  call void @abort()
  ret void
}
                
; Function Attrs: noinline optnone uwtable
define weak dso_local void @"?buildPropertiesSettings@ProjectExplorerPlugin@ProjectExplorer@@SAAEBVBuildPropertiesSettings@2@XZ"() #0 {
;  call void @abort()
  ret void
}
                
; Function Attrs: noinline optnone uwtable
define weak dso_local void @"?openTerminal@FileUtils@Core@@SAXAEBVQString@@AEBVEnvironment@Utils@@@Z"() #0 {
;  call void @abort()
  ret void
}
                
; Function Attrs: noinline optnone uwtable
define weak dso_local void @"?setBuildPropertiesSettings@ProjectExplorerPlugin@ProjectExplorer@@SAXAEBVBuildPropertiesSettings@2@@Z"() #0 {
;  call void @abort()
  ret void
}
                
; Function Attrs: noinline optnone uwtable
define weak dso_local void @"?defaultBuildDirectoryTemplate@ProjectExplorerPlugin@ProjectExplorer@@SA?AVQString@@XZ"() #0 {
;  call void @abort()
  ret void
}
                
; Function Attrs: noinline optnone uwtable
define weak dso_local void @"?customParsers@ProjectExplorerPlugin@ProjectExplorer@@SA?BV?$QList@VCustomParserSettings@ProjectExplorer@@@@XZ"() #0 {
;  call void @abort()
  ret void
}
                
; Function Attrs: noinline optnone uwtable
define weak dso_local void @"?setCustomParsers@ProjectExplorerPlugin@ProjectExplorer@@SAXAEBV?$QList@VCustomParserSettings@ProjectExplorer@@@@@Z"() #0 {
;  call void @abort()
  ret void
}
                
; Function Attrs: noinline optnone uwtable
define weak dso_local void @"??0CustomParserConfigDialog@Internal@ProjectExplorer@@QEAA@PEAVQWidget@@@Z"() #0 {
;  call void @abort()
  ret void
}
                
; Function Attrs: noinline optnone uwtable
define weak dso_local void @"?setSettings@CustomParserConfigDialog@Internal@ProjectExplorer@@QEAAXAEBVCustomParserSettings@3@@Z"() #0 {
;  call void @abort()
  ret void
}
                
; Function Attrs: noinline optnone uwtable
define weak dso_local void @"?settings@CustomParserConfigDialog@Internal@ProjectExplorer@@QEBA?AVCustomParserSettings@3@XZ"() #0 {
;  call void @abort()
  ret void
}
                
; Function Attrs: noinline optnone uwtable
define weak dso_local void @"??1CustomParserConfigDialog@Internal@ProjectExplorer@@UEAA@XZ"() #0 {
;  call void @abort()
  ret void
}
                
; Function Attrs: noinline optnone uwtable
define weak dso_local void @"?kitAspects@KitManager@ProjectExplorer@@SA?BV?$QList@PEAVKitAspect@ProjectExplorer@@@@XZ"() #0 {
;  call void @abort()
  ret void
}
                
; Function Attrs: noinline optnone uwtable
define weak dso_local void @"?irrelevantAspects@KitManager@ProjectExplorer@@SA?BV?$QSet@VId@Utils@@@@XZ"() #0 {
;  call void @abort()
  ret void
}
                
; Function Attrs: noinline optnone uwtable
define weak dso_local void @"?kits@KitManager@ProjectExplorer@@SA?BV?$QList@PEAVKit@ProjectExplorer@@@@XZ"() #0 {
;  call void @abort()
  ret void
}
                
; Function Attrs: noinline optnone uwtable
define weak dso_local void @"?registerKit@KitManager@ProjectExplorer@@SAPEAVKit@2@AEBV?$function@$$A6AXPEAVKit@ProjectExplorer@@@Z@std@@VId@Utils@@@Z"() #0 {
;  call void @abort()
  ret void
}
                
; Function Attrs: noinline optnone uwtable
define weak dso_local void @"?instance@KitManager@ProjectExplorer@@SAPEAV12@XZ"() #0 {
;  call void @abort()
  ret void
}
                
; Function Attrs: noinline optnone uwtable
define weak dso_local void @"?isLoaded@KitManager@ProjectExplorer@@SA_NXZ"() #0 {
;  call void @abort()
  ret void
}
                
; Function Attrs: noinline optnone uwtable
define weak dso_local void @"?sortKits@KitManager@ProjectExplorer@@SA?AV?$QList@PEAVKit@ProjectExplorer@@@@AEBV3@@Z"() #0 {
;  call void @abort()
  ret void
}
                
; Function Attrs: noinline optnone uwtable
define weak dso_local void @"?notifyAboutUpdate@KitManager@ProjectExplorer@@CAXPEAVKit@2@@Z"() #0 {
;  call void @abort()
  ret void
}
                
; Function Attrs: noinline optnone uwtable
define weak dso_local void @"?notifyAboutUpdate@KitAspect@ProjectExplorer@@IEAAXPEAVKit@2@@Z"() #0 {
;  call void @abort()
  ret void
}
                
; Function Attrs: noinline optnone uwtable
define weak dso_local void @"?addToMacroExpander@KitAspect@ProjectExplorer@@UEBAXPEAVKit@2@PEAVMacroExpander@Utils@@@Z"() #0 {
;  call void @abort()
  ret void
}
                
; Function Attrs: noinline optnone uwtable
define weak dso_local void @"?addToLayout@KitAspectWidget@ProjectExplorer@@QEAAXAEAVLayoutBuilder@Utils@@@Z"() #0 {
;  call void @abort()
  ret void
}
                
; Function Attrs: noinline optnone uwtable
define weak dso_local void @"?kitInformationId@KitAspectWidget@ProjectExplorer@@QEBA?AVId@Utils@@XZ"() #0 {
;  call void @abort()
  ret void
}
                
; Function Attrs: noinline optnone uwtable
define weak dso_local void @"?setVisible@KitAspectWidget@ProjectExplorer@@QEAAX_N@Z"() #0 {
;  call void @abort()
  ret void
}
                
; Function Attrs: noinline optnone uwtable
define weak dso_local void @"?setDefaultKit@KitManager@ProjectExplorer@@SAXPEAVKit@2@@Z"() #0 {
;  call void @abort()
  ret void
}
                
; Function Attrs: noinline optnone uwtable
define weak dso_local void @"?deregisterKit@KitManager@ProjectExplorer@@SAXPEAVKit@2@@Z"() #0 {
;  call void @abort()
  ret void
}
                
; Function Attrs: noinline optnone uwtable
define weak dso_local void @"?setIrrelevantAspects@KitManager@ProjectExplorer@@SAXAEBV?$QSet@VId@Utils@@@@@Z"() #0 {
;  call void @abort()
  ret void
}
                
; Function Attrs: noinline optnone uwtable
define weak dso_local void @"?saveModifiedFiles@ProjectExplorerPlugin@ProjectExplorer@@SA_NXZ"() #0 {
;  call void @abort()
  ret void
}
                
; Function Attrs: noinline optnone uwtable
define weak dso_local void @"?allRunControls@ProjectExplorerPlugin@ProjectExplorer@@SA?AV?$QList@PEAVRunControl@ProjectExplorer@@@@XZ"() #0 {
;  call void @abort()
  ret void
}
                
; Function Attrs: noinline optnone uwtable
define weak dso_local void @"?targetSelector@ProjectExplorerPlugin@ProjectExplorer@@SAPEAVMiniProjectTargetSelector@Internal@2@XZ"() #0 {
;  call void @abort()
  ret void
}
                
; Function Attrs: noinline optnone uwtable
define weak dso_local void @"?updateActions@ProjectExplorerPlugin@ProjectExplorer@@SAXXZ"() #0 {
;  call void @abort()
  ret void
}
                
; Function Attrs: noinline optnone uwtable
define weak dso_local void @"?setFiles@ProjectWizardPage@Internal@ProjectExplorer@@QEAAXAEBVQStringList@@@Z"() #0 {
;  call void @abort()
  ret void
}
                
; Function Attrs: noinline optnone uwtable
define weak dso_local void @"?initializeProjectTree@ProjectWizardPage@Internal@ProjectExplorer@@QEAAXPEAVNode@3@AEBVQStringList@@W4WizardKind@IWizardFactory@Core@@W4ProjectAction@3@@Z"() #0 {
;  call void @abort()
  ret void
}
                
; Function Attrs: noinline optnone uwtable
define weak dso_local void @"?initializeVersionControls@ProjectWizardPage@Internal@ProjectExplorer@@QEAAXXZ"() #0 {
;  call void @abort()
  ret void
}
                
; Function Attrs: noinline optnone uwtable
define weak dso_local void @"??0ProjectWizardPage@Internal@ProjectExplorer@@QEAA@PEAVQWidget@@@Z"() #0 {
;  call void @abort()
  ret void
}
                
; Function Attrs: noinline optnone uwtable
define weak dso_local void @"?runVersionControl@ProjectWizardPage@Internal@ProjectExplorer@@QEAA_NAEBV?$QList@VGeneratedFile@Core@@@@PEAVQString@@@Z"() #0 {
;  call void @abort()
  ret void
}
                
; Function Attrs: noinline optnone uwtable
define weak dso_local void @"?currentNode@ProjectWizardPage@Internal@ProjectExplorer@@QEBAPEAVFolderNode@3@XZ"() #0 {
;  call void @abort()
  ret void
}
                
; Function Attrs: noinline optnone uwtable
define weak dso_local void @"?updateWindowTitles@EditorManager@Core@@SAXXZ"() #0 {
;  call void @abort()
  ret void
}
                
; Function Attrs: noinline optnone uwtable
define weak dso_local void @"?setWindowTitleAdditionHandler@EditorManager@Core@@SAXV?$function@$$A6A?AVQString@@AEBV1@@Z@std@@@Z"() #0 {
;  call void @abort()
  ret void
}
                
; Function Attrs: noinline optnone uwtable
define weak dso_local void @"?setSessionTitleHandler@EditorManager@Core@@SAXV?$function@$$A6A?AVQString@@AEBV1@@Z@std@@@Z"() #0 {
;  call void @abort()
  ret void
}
                
; Function Attrs: noinline optnone uwtable
define weak dso_local void @"?saveState@EditorManager@Core@@SA?AVQByteArray@@XZ"() #0 {
;  call void @abort()
  ret void
}
                
; Function Attrs: noinline optnone uwtable
define weak dso_local void @"?closeAllEditors@EditorManager@Core@@SA_N_N@Z"() #0 {
;  call void @abort()
  ret void
}
                
; Function Attrs: noinline optnone uwtable
define weak dso_local void @"?restoreState@EditorManager@Core@@SA_NAEBVQByteArray@@@Z"() #0 {
;  call void @abort()
  ret void
}
                
; Function Attrs: noinline optnone uwtable
define weak dso_local void @"?openProjects@ProjectExplorerPlugin@ProjectExplorer@@SA?AVOpenProjectResult@12@AEBVQStringList@@@Z"() #0 {
;  call void @abort()
  ret void
}
                
; Function Attrs: noinline optnone uwtable
define weak dso_local void @"?showOpenProjectError@ProjectExplorerPlugin@ProjectExplorer@@SAXAEBVOpenProjectResult@12@@Z"() #0 {
;  call void @abort()
  ret void
}
                
; Function Attrs: noinline optnone uwtable
define weak dso_local void @"?fileIterator@BaseFileFilter@Core@@IEAA?AV?$QSharedPointer@VIterator@BaseFileFilter@Core@@@@XZ"() #0 {
;  call void @abort()
  ret void
}
                
; Function Attrs: noinline optnone uwtable
define weak dso_local void @"??0ListIterator@BaseFileFilter@Core@@QEAA@AEBV?$QList@VFilePath@Utils@@@@@Z"() #0 {
;  call void @abort()
  ret void
}
                
; Function Attrs: noinline optnone uwtable
define weak dso_local void @"?addDocument@DocumentManager@Core@@SAXPEAVIDocument@2@_N@Z"() #0 {
;  call void @abort()
  ret void
}
                
; Function Attrs: noinline optnone uwtable
define weak dso_local void @"?buildDirectoryTemplate@ProjectExplorerPlugin@ProjectExplorer@@SA?AVQString@@XZ"() #0 {
;  call void @abort()
  ret void
}
                
; Function Attrs: noinline optnone uwtable
define weak dso_local void @"?updateRunActions@ProjectExplorerPlugin@ProjectExplorer@@SAXXZ"() #0 {
;  call void @abort()
  ret void
}
                
; Function Attrs: noinline optnone uwtable
define weak dso_local void @"?languageSettingsId@TextEditorWidget@TextEditor@@QEBA?AVId@Utils@@XZ"() #0 {
;  call void @abort()
  ret void
}
                
; Function Attrs: noinline optnone uwtable
define weak dso_local void @"?setTypingSettings@TextEditorWidget@TextEditor@@QEAAXAEBVTypingSettings@2@@Z"() #0 {
;  call void @abort()
  ret void
}
                
; Function Attrs: noinline optnone uwtable
define weak dso_local void @"?setStorageSettings@TextEditorWidget@TextEditor@@QEAAXAEBVStorageSettings@2@@Z"() #0 {
;  call void @abort()
  ret void
}
                
; Function Attrs: noinline optnone uwtable
define weak dso_local void @"?setBehaviorSettings@TextEditorWidget@TextEditor@@QEAAXAEBVBehaviorSettings@2@@Z"() #0 {
;  call void @abort()
  ret void
}
                
; Function Attrs: noinline optnone uwtable
define weak dso_local void @"?setExtraEncodingSettings@TextEditorWidget@TextEditor@@QEAAXAEBVExtraEncodingSettings@2@@Z"() #0 {
;  call void @abort()
  ret void
}
                
; Function Attrs: noinline optnone uwtable
define weak dso_local void @"?appOutputSettings@ProjectExplorerPlugin@ProjectExplorer@@SAAEBVAppOutputSettings@Internal@2@XZ"() #0 {
;  call void @abort()
  ret void
}
                
; Function Attrs: noinline optnone uwtable
define weak dso_local void @"?instance@WinDebugInterface@Internal@ProjectExplorer@@SAPEAV123@XZ"() #0 {
;  call void @abort()
  ret void
}
                
; Function Attrs: noinline optnone uwtable
define weak dso_local void @"?cannotRetrieveDebugOutput@WinDebugInterface@Internal@ProjectExplorer@@QEAAXXZ"() #0 {
;  call void @abort()
  ret void
}
                
; Function Attrs: noinline optnone uwtable
define weak dso_local void @"?debugOutput@WinDebugInterface@Internal@ProjectExplorer@@QEAAX_JAEBVQString@@@Z"() #0 {
;  call void @abort()
  ret void
}
                
; Function Attrs: noinline optnone uwtable
define weak dso_local void @"?staticMetaObject@WinDebugInterface@Internal@ProjectExplorer@@2UQMetaObject@@B"() #0 {
;  call void @abort()
  ret void
}
                
; Function Attrs: noinline optnone uwtable
define weak dso_local void @"?renamedFile@DocumentManager@Core@@SAXAEBVQString@@0@Z"() #0 {
;  call void @abort()
  ret void
}
                
; Function Attrs: noinline optnone uwtable
define weak dso_local void @"?removeFile@FileUtils@Core@@SAXAEBVQString@@_N@Z"() #0 {
;  call void @abort()
  ret void
}
                
; Function Attrs: noinline optnone uwtable
define weak dso_local void @"?projectFileGlobs@ProjectExplorerPlugin@ProjectExplorer@@SA?AVQStringList@@XZ"() #0 {
;  call void @abort()
  ret void
}
                
; Function Attrs: noinline optnone uwtable
define weak dso_local void @"?isProjectFile@ProjectExplorerPlugin@ProjectExplorer@@SA_NAEBVFilePath@Utils@@@Z"() #0 {
;  call void @abort()
  ret void
}
                
; Function Attrs: noinline optnone uwtable
define weak dso_local void @"?createDiffAgainstCurrentFileAction@TextDocument@TextEditor@@SAPEAVQAction@@PEAVQObject@@AEBV?$function@$$A6A?AVFilePath@Utils@@XZ@std@@@Z"() #0 {
;  call void @abort()
  ret void
}
                
; Function Attrs: noinline optnone uwtable
define weak dso_local void @"?openProject@ProjectExplorerPlugin@ProjectExplorer@@SA?AVOpenProjectResult@12@AEBVQString@@@Z"() #0 {
;  call void @abort()
  ret void
}
                
; Function Attrs: noinline optnone uwtable
define weak dso_local void @"?displayNameChanged@IFindFilter@Core@@QEAAXXZ"() #0 {
;  call void @abort()
  ret void
}
                
; Function Attrs: noinline optnone uwtable
define weak dso_local void @"?cancelMsvcToolChainDetection@MsvcToolChain@Internal@ProjectExplorer@@SAXXZ"() #0 {
;  call void @abort()
  ret void
}
                
; Function Attrs: noinline optnone uwtable
define weak dso_local void @"?setProjectsDirectory@DocumentManager@Core@@SAXAEBVFilePath@Utils@@@Z"() #0 {
;  call void @abort()
  ret void
}
                
; Function Attrs: noinline optnone uwtable
define weak dso_local void @"?setUseProjectsDirectory@DocumentManager@Core@@SAX_N@Z"() #0 {
;  call void @abort()
  ret void
}
                
; Function Attrs: noinline optnone uwtable
define weak dso_local void @"?runRunConfiguration@ProjectExplorerPlugin@ProjectExplorer@@SAXPEAVRunConfiguration@2@VId@Utils@@_N@Z"() #0 {
;  call void @abort()
  ret void
}
                
; Function Attrs: noinline optnone uwtable
define weak dso_local void @"?settingsChanged@ProjectExplorerPlugin@ProjectExplorer@@QEAAXXZ"() #0 {
;  call void @abort()
  ret void
}
                
; Function Attrs: noinline optnone uwtable
define weak dso_local void @"?setProjectExplorerSettings@ProjectExplorerPlugin@ProjectExplorer@@SAXAEBVProjectExplorerSettings@Internal@2@@Z"() #0 {
;  call void @abort()
  ret void
}
                
; Function Attrs: noinline optnone uwtable
define weak dso_local void @"?stop@WinDebugInterface@Internal@ProjectExplorer@@QEAA_NXZ"() #0 {
;  call void @abort()
  ret void
}
                
; Function Attrs: noinline optnone uwtable
define weak dso_local void @"?setAppOutputSettings@ProjectExplorerPlugin@ProjectExplorer@@SAXAEBVAppOutputSettings@Internal@2@@Z"() #0 {
;  call void @abort()
  ret void
}
                
; Function Attrs: noinline optnone uwtable
define weak dso_local void @"??0DeviceSettingsWidget@Internal@ProjectExplorer@@QEAA@XZ"() #0 {
;  call void @abort()
  ret void
}
                
; Function Attrs: noinline optnone uwtable
define weak dso_local void @"?customParsersChanged@ProjectExplorerPlugin@ProjectExplorer@@QEAAXXZ"() #0 {
;  call void @abort()
  ret void
}
                
; Function Attrs: noinline optnone uwtable
define weak dso_local void @"?recentProjectsChanged@ProjectExplorerPlugin@ProjectExplorer@@QEAAXXZ"() #0 {
;  call void @abort()
  ret void
}
                
; Function Attrs: noinline optnone uwtable
define weak dso_local void @"?recentProjects@ProjectExplorerPlugin@ProjectExplorer@@SA?AV?$QList@U?$QPair@VQString@@V1@@@@@XZ"() #0 {
;  call void @abort()
  ret void
}
                
; Function Attrs: noinline optnone uwtable
define weak dso_local void @"?openNewProjectDialog@ProjectExplorerPlugin@ProjectExplorer@@SAXXZ"() #0 {
;  call void @abort()
  ret void
}
                
; Function Attrs: noinline optnone uwtable
define weak dso_local void @"?openOpenProjectDialog@ProjectExplorerPlugin@ProjectExplorer@@SAXXZ"() #0 {
;  call void @abort()
  ret void
}
                
; Function Attrs: noinline optnone uwtable
define weak dso_local void @"?openProjectWelcomePage@ProjectExplorerPlugin@ProjectExplorer@@SAXAEBVQString@@@Z"() #0 {
;  call void @abort()
  ret void
}
                
; Function Attrs: noinline optnone uwtable
define weak dso_local void @"?removeFromRecentProjects@ProjectExplorerPlugin@ProjectExplorer@@SAXAEBVQString@@0@Z"() #0 {
;  call void @abort()
  ret void
}
                
; Function Attrs: noinline optnone uwtable
define weak dso_local void @"?clearRecentProjects@ProjectExplorerPlugin@ProjectExplorer@@SAXXZ"() #0 {
;  call void @abort()
  ret void
}
                
; Function Attrs: noinline optnone uwtable
define weak dso_local void @"?showSessionManager@ProjectExplorerPlugin@ProjectExplorer@@SAXXZ"() #0 {
;  call void @abort()
  ret void
}
                
; Function Attrs: noinline optnone uwtable
define weak dso_local void @"??0SessionNameInputDialog@Internal@ProjectExplorer@@QEAA@PEAVQWidget@@@Z"() #0 {
;  call void @abort()
  ret void
}
                
; Function Attrs: noinline optnone uwtable
define weak dso_local void @"?setActionText@SessionNameInputDialog@Internal@ProjectExplorer@@QEAAXAEBVQString@@0@Z"() #0 {
;  call void @abort()
  ret void
}
                
; Function Attrs: noinline optnone uwtable
define weak dso_local void @"?value@SessionNameInputDialog@Internal@ProjectExplorer@@QEBA?AVQString@@XZ"() #0 {
;  call void @abort()
  ret void
}
                
; Function Attrs: noinline optnone uwtable
define weak dso_local void @"?isSwitchToRequested@SessionNameInputDialog@Internal@ProjectExplorer@@QEBA_NXZ"() #0 {
;  call void @abort()
  ret void
}
                
; Function Attrs: noinline optnone uwtable
define weak dso_local void @"?setValue@SessionNameInputDialog@Internal@ProjectExplorer@@QEAAXAEBVQString@@@Z"() #0 {
;  call void @abort()
  ret void
}
                
; Function Attrs: noinline optnone uwtable
define weak dso_local void @"?setDefaultLocationForNewFiles@DocumentManager@Core@@SAXAEBVQString@@@Z"() #0 {
;  call void @abort()
  ret void
}
                
; Function Attrs: noinline optnone uwtable
define weak dso_local void @"?quickToolBar@QmlJSEditorPlugin@Internal@QmlJSEditor@@SAPEAVQuickToolBar@3@XZ"() #0 {
;  call void @abort()
  ret void
}
                
; Function Attrs: noinline optnone uwtable
define weak dso_local void @"?isValid@SemanticInfo@QmlJSTools@@QEBA_NXZ"() #0 {
;  call void @abort()
  ret void
}
                
; Function Attrs: noinline optnone uwtable
define weak dso_local void @"?declaringMemberNoProperties@SemanticInfo@QmlJSTools@@QEBAPEAVNode@AST@QmlJS@@H@Z"() #0 {
;  call void @abort()
  ret void
}
                
; Function Attrs: noinline optnone uwtable
define weak dso_local void @"?className@FakeMetaObject@LanguageUtils@@QEBA?AVQString@@XZ"() #0 {
;  call void @abort()
  ret void
}
                
; Function Attrs: noinline optnone uwtable
define weak dso_local void @"?astNodeAt@SemanticInfo@QmlJSTools@@QEBAPEAVNode@AST@QmlJS@@H@Z"() #0 {
;  call void @abort()
  ret void
}
                
; Function Attrs: noinline optnone uwtable
define weak dso_local void @"?rangePath@SemanticInfo@QmlJSTools@@QEBA?AV?$QList@PEAVNode@AST@QmlJS@@@@H@Z"() #0 {
;  call void @abort()
  ret void
}
                
; Function Attrs: noinline optnone uwtable
define weak dso_local void @"?scopeChain@SemanticInfo@QmlJSTools@@QEBA?AVScopeChain@QmlJS@@AEBV?$QList@PEAVNode@AST@QmlJS@@@@@Z"() #0 {
;  call void @abort()
  ret void
}
                
; Function Attrs: noinline optnone uwtable
define weak dso_local void @"?superclassName@FakeMetaObject@LanguageUtils@@QEBA?AVQString@@XZ"() #0 {
;  call void @abort()
  ret void
}
                
; Function Attrs: noinline optnone uwtable
define weak dso_local void @"?toString@ComponentVersion@LanguageUtils@@QEBA?AVQString@@XZ"() #0 {
;  call void @abort()
  ret void
}
                
; Function Attrs: noinline optnone uwtable
define weak dso_local void @"??1ComponentVersion@LanguageUtils@@QEAA@XZ"() #0 {
;  call void @abort()
  ret void
}
                
; Function Attrs: noinline optnone uwtable
define weak dso_local void @"?enumeratorCount@FakeMetaObject@LanguageUtils@@QEBAHXZ"() #0 {
;  call void @abort()
  ret void
}
                
; Function Attrs: noinline optnone uwtable
define weak dso_local void @"?enumeratorOffset@FakeMetaObject@LanguageUtils@@QEBAHXZ"() #0 {
;  call void @abort()
  ret void
}
                
; Function Attrs: noinline optnone uwtable
define weak dso_local void @"?enumerator@FakeMetaObject@LanguageUtils@@QEBA?AVFakeMetaEnum@2@H@Z"() #0 {
;  call void @abort()
  ret void
}
                
; Function Attrs: noinline optnone uwtable
define weak dso_local void @"?name@FakeMetaEnum@LanguageUtils@@QEBA?AVQString@@XZ"() #0 {
;  call void @abort()
  ret void
}
                
; Function Attrs: noinline optnone uwtable
define weak dso_local void @"?keys@FakeMetaEnum@LanguageUtils@@QEBA?AVQStringList@@XZ"() #0 {
;  call void @abort()
  ret void
}
                
; Function Attrs: noinline optnone uwtable
define weak dso_local void @"?quickFixAssistProvider@QmlJSEditorPlugin@Internal@QmlJSEditor@@SAPEAVQmlJSQuickFixAssistProvider@23@XZ"() #0 {
;  call void @abort()
  ret void
}
                
; Function Attrs: noinline optnone uwtable
define weak dso_local void @"?rangeAt@SemanticInfo@QmlJSTools@@QEBAPEAVNode@AST@QmlJS@@H@Z"() #0 {
;  call void @abort()
  ret void
}
                
; Function Attrs: noinline optnone uwtable
define weak dso_local void @"?setEditorCreator@TextEditorFactory@TextEditor@@QEAAXAEBV?$function@$$A6APEAVBaseTextEditor@TextEditor@@XZ@std@@@Z"() #0 {
;  call void @abort()
  ret void
}
                
; Function Attrs: noinline optnone uwtable
define weak dso_local void @"?setAutoCompleterCreator@TextEditorFactory@TextEditor@@QEAAXAEBV?$function@$$A6APEAVAutoCompleter@TextEditor@@XZ@std@@@Z"() #0 {
;  call void @abort()
  ret void
}
                
; Function Attrs: noinline optnone uwtable
define weak dso_local void @"?setCommentDefinition@TextEditorFactory@TextEditor@@QEAAXVCommentDefinition@Utils@@@Z"() #0 {
;  call void @abort()
  ret void
}
                
; Function Attrs: noinline optnone uwtable
define weak dso_local void @"?setParenthesesMatchingEnabled@TextEditorFactory@TextEditor@@QEAAX_N@Z"() #0 {
;  call void @abort()
  ret void
}
                
; Function Attrs: noinline optnone uwtable
define weak dso_local void @"?setCodeFoldingSupported@TextEditorFactory@TextEditor@@QEAAX_N@Z"() #0 {
;  call void @abort()
  ret void
}
                
; Function Attrs: noinline optnone uwtable
define weak dso_local void @"?setCompletionAssistProvider@TextEditorFactory@TextEditor@@QEAAXPEAVCompletionAssistProvider@2@@Z"() #0 {
;  call void @abort()
  ret void
}
                
; Function Attrs: noinline optnone uwtable
define weak dso_local void @"??0Indenter@Internal@QmlJSEditor@@QEAA@PEAVQTextDocument@@@Z"() #0 {
;  call void @abort()
  ret void
}
                
; Function Attrs: noinline optnone uwtable
define weak dso_local void @"?parameterNames@FakeMetaMethod@LanguageUtils@@QEBA?AVQStringList@@XZ"() #0 {
;  call void @abort()
  ret void
}
                
; Function Attrs: noinline optnone uwtable
define weak dso_local void @"?parameterTypes@FakeMetaMethod@LanguageUtils@@QEBA?AVQStringList@@XZ"() #0 {
;  call void @abort()
  ret void
}
                
; Function Attrs: noinline optnone uwtable
define weak dso_local void @"?astPath@SemanticInfo@QmlJSTools@@QEBA?AV?$QList@PEAVNode@AST@QmlJS@@@@H@Z"() #0 {
;  call void @abort()
  ret void
}
                
; Function Attrs: noinline optnone uwtable
define weak dso_local void @"?isCursorOn@QmlJSRefactoringFile@QmlJSTools@@QEBA_NPEAVUiQualifiedId@AST@QmlJS@@@Z"() #0 {
;  call void @abort()
  ret void
}
                
; Function Attrs: noinline optnone uwtable
define weak dso_local void @"??0QmlJSRefactoringChanges@QmlJSTools@@QEAA@PEAVModelManagerInterface@QmlJS@@AEBVSnapshot@3@@Z"() #0 {
;  call void @abort()
  ret void
}
                
; Function Attrs: noinline optnone uwtable
define weak dso_local void @"?file@QmlJSRefactoringChanges@QmlJSTools@@QEBA?AV?$QSharedPointer@VQmlJSRefactoringFile@QmlJSTools@@@@AEBVQString@@@Z"() #0 {
;  call void @abort()
  ret void
}
                
; Function Attrs: noinline optnone uwtable
define weak dso_local void @"?qmljsDocument@QmlJSRefactoringFile@QmlJSTools@@QEBA?AV?$QSharedPointer@$$CBVDocument@QmlJS@@@@XZ"() #0 {
;  call void @abort()
  ret void
}
                
; Function Attrs: noinline optnone uwtable
define weak dso_local void @"?go@ComponentNameDialog@Internal@QmlJSEditor@@SA_NPEAVQString@@00AEBVQStringList@@1AEBV4@PEAV5@PEAVQWidget@@@Z"() #0 {
;  call void @abort()
  ret void
}
                
; Function Attrs: noinline optnone uwtable
define weak dso_local void @"?startOf@QmlJSRefactoringFile@QmlJSTools@@QEBAIAEBVSourceLocation@QmlJS@@@Z"() #0 {
;  call void @abort()
  ret void
}
                
; Function Attrs: noinline optnone uwtable
define weak dso_local void @"?isCursorOn@QmlJSRefactoringFile@QmlJSTools@@QEBA_NVSourceLocation@QmlJS@@@Z"() #0 {
;  call void @abort()
  ret void
}
                
; Function Attrs: noinline optnone uwtable
define weak dso_local void @"?file@QmlJSRefactoringChanges@QmlJSTools@@SA?AV?$QSharedPointer@VQmlJSRefactoringFile@QmlJSTools@@@@PEAVTextEditorWidget@TextEditor@@AEBV?$QSharedPointer@$$CBVDocument@QmlJS@@@@@Z"() #0 {
;  call void @abort()
  ret void
}
                
; Function Attrs: noinline optnone uwtable
define weak dso_local void @"?setRootScopeChain@SemanticInfo@QmlJSTools@@QEAAXV?$QSharedPointer@$$CBVScopeChain@QmlJS@@@@@Z"() #0 {
;  call void @abort()
  ret void
}
                
; Function Attrs: noinline optnone uwtable
define weak dso_local void @"?jsonManager@QmlJSEditorPlugin@Internal@QmlJSEditor@@SAPEAVJsonSchemaManager@Utils@@XZ"() #0 {
;  call void @abort()
  ret void
}
                
; Function Attrs: noinline optnone uwtable
define weak dso_local void @"?revision@SemanticInfo@QmlJSTools@@QEBAHXZ"() #0 {
;  call void @abort()
  ret void
}
                
; Function Attrs: noinline optnone uwtable
define weak dso_local void @"??0CreatorCodeFormatter@QmlJSTools@@QEAA@AEBVTabSettings@TextEditor@@@Z"() #0 {
;  call void @abort()
  ret void
}
                
; Function Attrs: noinline optnone uwtable
define weak dso_local void @"?completionAssistProvider@TextDocument@TextEditor@@UEBAPEAVCompletionAssistProvider@2@XZ"() #0 {
;  call void @abort()
  ret void
}
                
; Function Attrs: noinline optnone uwtable
define weak dso_local void @"?functionHintAssistProvider@TextDocument@TextEditor@@UEBAPEAVCompletionAssistProvider@2@XZ"() #0 {
;  call void @abort()
  ret void
}
                
; Function Attrs: noinline optnone uwtable
define weak dso_local void @"??0ExamplesListModel@Internal@QtSupport@@QEAA@PEAVQObject@@@Z"() #0 {
;  call void @abort()
  ret void
}
                
; Function Attrs: noinline optnone uwtable
define weak dso_local void @"??0ExamplesListModelFilter@Internal@QtSupport@@QEAA@PEAVExamplesListModel@12@_NPEAVQObject@@@Z"() #0 {
;  call void @abort()
  ret void
}
                
; Function Attrs: noinline optnone uwtable
define weak dso_local void @"?selectExampleSet@ExampleSetModel@Internal@QtSupport@@QEAAXH@Z"() #0 {
;  call void @abort()
  ret void
}
                
; Function Attrs: noinline optnone uwtable
define weak dso_local void @"?isQmlDebuggingSupported@BaseQtVersion@QtSupport@@SA_NPEBVKit@ProjectExplorer@@PEAVQString@@@Z"() #0 {
;  call void @abort()
  ret void
}
                
; Function Attrs: noinline optnone uwtable
define weak dso_local void @"?isQtQuickCompilerSupported@BaseQtVersion@QtSupport@@SA_NPEBVKit@ProjectExplorer@@PEAVQString@@@Z"() #0 {
;  call void @abort()
  ret void
}
                
; Function Attrs: noinline optnone uwtable
define weak dso_local void @"?qtVersion@BaseQtVersion@QtSupport@@QEBA?AVQtVersionNumber@2@XZ"() #0 {
;  call void @abort()
  ret void
}
                
; Function Attrs: noinline optnone uwtable
define weak dso_local void @"??0QtVersionNumber@QtSupport@@QEAA@HHH@Z"() #0 {
;  call void @abort()
  ret void
}
                
; Function Attrs: noinline optnone uwtable
define weak dso_local void @"??MQtVersionNumber@QtSupport@@QEBA_NAEBV01@@Z"() #0 {
;  call void @abort()
  ret void
}
                
; Function Attrs: noinline optnone uwtable
define weak dso_local void @"?qmakeCommand@BaseQtVersion@QtSupport@@QEBA?AVFilePath@Utils@@XZ"() #0 {
;  call void @abort()
  ret void
}
                
; Function Attrs: noinline optnone uwtable
define weak dso_local void @"?uniqueId@BaseQtVersion@QtSupport@@QEBAHXZ"() #0 {
;  call void @abort()
  ret void
}
                
; Function Attrs: noinline optnone uwtable
define weak dso_local void @"?createQtVersionFromQMakePath@QtVersionFactory@QtSupport@@SAPEAVBaseQtVersion@2@AEBVFilePath@Utils@@_NAEBVQString@@PEAV6@@Z"() #0 {
;  call void @abort()
  ret void
}
                
; Function Attrs: noinline optnone uwtable
define weak dso_local void @"?displayName@BaseQtVersion@QtSupport@@QEBA?AVQString@@XZ"() #0 {
;  call void @abort()
  ret void
}
                
; Function Attrs: noinline optnone uwtable
define weak dso_local void @"?autodetectionSource@BaseQtVersion@QtSupport@@QEBA?AVQString@@XZ"() #0 {
;  call void @abort()
  ret void
}
                
; Function Attrs: noinline optnone uwtable
define weak dso_local void @"?mkspec@BaseQtVersion@QtSupport@@QEBA?AVQString@@XZ"() #0 {
;  call void @abort()
  ret void
}
                
; Function Attrs: noinline optnone uwtable
define weak dso_local void @"?createMacroExpander@BaseQtVersion@QtSupport@@SA?AV?$unique_ptr@VMacroExpander@Utils@@U?$default_delete@VMacroExpander@Utils@@@std@@@std@@AEBV?$function@$$A6APEBVBaseQtVersion@QtSupport@@XZ@4@@Z"() #0 {
;  call void @abort()
  ret void
}
                
; Function Attrs: noinline optnone uwtable
define weak dso_local void @"?features@BaseQtVersion@QtSupport@@QEBA?AV?$QSet@VId@Utils@@@@XZ"() #0 {
;  call void @abort()
  ret void
}
                
; Function Attrs: noinline optnone uwtable
define weak dso_local void @"?qtAbis@BaseQtVersion@QtSupport@@QEBA?AV?$QVector@VAbi@ProjectExplorer@@@@XZ"() #0 {
;  call void @abort()
  ret void
}
                
; Function Attrs: noinline optnone uwtable
define weak dso_local void @"??OQtVersionNumber@QtSupport@@QEBA_NAEBV01@@Z"() #0 {
;  call void @abort()
  ret void
}
                
; Function Attrs: noinline optnone uwtable
define weak dso_local void @"??8QtVersionNumber@QtSupport@@QEBA_NAEBV01@@Z"() #0 {
;  call void @abort()
  ret void
}
                
; Function Attrs: noinline optnone uwtable
define weak dso_local void @"?allQtVersionFactories@QtVersionFactory@QtSupport@@SA?BV?$QList@PEAVQtVersionFactory@QtSupport@@@@XZ"() #0 {
;  call void @abort()
  ret void
}
                
; Function Attrs: noinline optnone uwtable
define weak dso_local void @"?canRestore@QtVersionFactory@QtSupport@@QEAA_NAEBVQString@@@Z"() #0 {
;  call void @abort()
  ret void
}
                
; Function Attrs: noinline optnone uwtable
define weak dso_local void @"?restore@QtVersionFactory@QtSupport@@QEAAPEAVBaseQtVersion@2@AEBVQString@@AEBV?$QMap@VQString@@VQVariant@@@@@Z"() #0 {
;  call void @abort()
  ret void
}
                
; Function Attrs: noinline optnone uwtable
define weak dso_local void @"?unexpandedDisplayName@BaseQtVersion@QtSupport@@QEBA?AVQString@@XZ"() #0 {
;  call void @abort()
  ret void
}
                
; Function Attrs: noinline optnone uwtable
define weak dso_local void @"?isAutodetected@BaseQtVersion@QtSupport@@QEBA_NXZ"() #0 {
;  call void @abort()
  ret void
}
                
; Function Attrs: noinline optnone uwtable
define weak dso_local void @"?type@BaseQtVersion@QtSupport@@QEBA?AVQString@@XZ"() #0 {
;  call void @abort()
  ret void
}
                
; Function Attrs: noinline optnone uwtable
define weak dso_local void @"?docsPath@BaseQtVersion@QtSupport@@QEBA?AVFilePath@Utils@@XZ"() #0 {
;  call void @abort()
  ret void
}
                
; Function Attrs: noinline optnone uwtable
define weak dso_local void @"?binPath@BaseQtVersion@QtSupport@@QEBA?AVFilePath@Utils@@XZ"() #0 {
;  call void @abort()
  ret void
}
                
; Function Attrs: noinline optnone uwtable
define weak dso_local void @"?hasQmlDump@BaseQtVersion@QtSupport@@QEBA_NXZ"() #0 {
;  call void @abort()
  ret void
}
                
; Function Attrs: noinline optnone uwtable
define weak dso_local void @"??0QMakeParser@@QEAA@PEAVProFileCache@@PEAVQMakeVfs@@PEAVQMakeParserHandler@@@Z"() #0 {
;  call void @abort()
  ret void
}
                
; Function Attrs: noinline optnone uwtable
define weak dso_local void @"??0ProFileEvaluator@@QEAA@PEAVQMakeGlobals@@PEAVQMakeParser@@PEAVQMakeVfs@@PEAVQMakeHandler@@@Z"() #0 {
;  call void @abort()
  ret void
}
                
; Function Attrs: noinline optnone uwtable
define weak dso_local void @"?setExtraConfigs@ProFileEvaluator@@QEAAXAEBVQStringList@@@Z"() #0 {
;  call void @abort()
  ret void
}
                
; Function Attrs: noinline optnone uwtable
define weak dso_local void @"??1ProFileEvaluator@@QEAA@XZ"() #0 {
;  call void @abort()
  ret void
}
                
; Function Attrs: noinline optnone uwtable
define weak dso_local void @"??0ProFileCache@@QEAA@XZ"() #0 {
;  call void @abort()
  ret void
}
                
; Function Attrs: noinline optnone uwtable
define weak dso_local void @"??1ProFile@@QEAA@XZ"() #0 {
;  call void @abort()
  ret void
}
                
; Function Attrs: noinline optnone uwtable
define weak dso_local void @"??1ProFileCache@@QEAA@XZ"() #0 {
;  call void @abort()
  ret void
}
                
; Function Attrs: noinline optnone uwtable
define weak dso_local void @"?discardFiles@ProFileCache@@QEAAXAEBVQString@@PEAVQMakeVfs@@@Z"() #0 {
;  call void @abort()
  ret void
}
                
; Function Attrs: noinline optnone uwtable
define weak dso_local void @"?discardFile@ProFileCache@@QEAAXAEBVQString@@PEAVQMakeVfs@@@Z"() #0 {
;  call void @abort()
  ret void
}
                
; Function Attrs: noinline optnone uwtable
define weak dso_local void @"?uicCommand@BaseQtVersion@QtSupport@@QEBA?AVQString@@XZ"() #0 {
;  call void @abort()
  ret void
}
                
; Function Attrs: noinline optnone uwtable
define weak dso_local void @"?qscxmlcCommand@BaseQtVersion@QtSupport@@QEBA?AVQString@@XZ"() #0 {
;  call void @abort()
  ret void
}
                
; Function Attrs: noinline optnone uwtable
define weak dso_local void @"?setTypeIdsSuffix@JsonWizardPageFactory@ProjectExplorer@@IEAAXAEBVQString@@@Z"() #0 {
;  call void @abort()
  ret void
}
                
; Function Attrs: noinline optnone uwtable
define weak dso_local void @"??1JsonWizardPageFactory@ProjectExplorer@@UEAA@XZ"() #0 {
;  call void @abort()
  ret void
}
                
; Function Attrs: noinline optnone uwtable
define weak dso_local void @"?stringValue@JsonWizard@ProjectExplorer@@QEBA?AVQString@@AEBV3@@Z"() #0 {
;  call void @abort()
  ret void
}
                
; Function Attrs: noinline optnone uwtable
define weak dso_local void @"?expander@JsonWizard@ProjectExplorer@@QEAAPEAVMacroExpander@Utils@@XZ"() #0 {
;  call void @abort()
  ret void
}
                
; Function Attrs: noinline optnone uwtable
define weak dso_local void @"?setValue@JsonWizard@ProjectExplorer@@QEAAXAEBVQString@@AEBVQVariant@@@Z"() #0 {
;  call void @abort()
  ret void
}
                
; Function Attrs: noinline optnone uwtable
define weak dso_local void @"?setWindowTitleVcsTopicHandler@EditorManager@Core@@SAXV?$function@$$A6A?AVQString@@AEBV1@@Z@std@@@Z"() #0 {
;  call void @abort()
  ret void
}
                
; Function Attrs: noinline optnone uwtable
define weak dso_local void @"?instance@VcsPlugin@Internal@VcsBase@@SAPEAV123@XZ"() #0 {
;  call void @abort()
  ret void
}
                
; Function Attrs: noinline optnone uwtable
define weak dso_local void @"?submitEditorAboutToClose@VcsPlugin@Internal@VcsBase@@QEAAXPEAVVcsBaseSubmitEditor@3@PEA_N@Z"() #0 {
;  call void @abort()
  ret void
}
                
; Function Attrs: noinline optnone uwtable
define weak dso_local void @"?staticMetaObject@VcsPlugin@Internal@VcsBase@@2UQMetaObject@@B"() #0 {
;  call void @abort()
  ret void
}
                
; Function Attrs: noinline optnone uwtable
define weak dso_local void @"?saveAllModifiedDocuments@DocumentManager@Core@@SA_NAEBVQString@@PEA_N01PEAV?$QList@PEAVIDocument@Core@@@@@Z"() #0 {
;  call void @abort()
  ret void
}
                
; Function Attrs: noinline optnone uwtable
define weak dso_local void @"?settings@VcsPlugin@Internal@VcsBase@@QEBA?AVCommonVcsSettings@23@XZ"() #0 {
;  call void @abort()
  ret void
}
                
; Function Attrs: noinline optnone uwtable
define weak dso_local void @"?addTask@ShellCommand@Core@@MEAAXAEAV?$QFuture@X@@@Z"() #0 {
;  call void @abort()
  ret void
}
                
; Function Attrs: noinline optnone uwtable
define weak dso_local void @"?coreAboutToClose@ShellCommand@Core@@MEAAXXZ"() #0 {
;  call void @abort()
  ret void
}
                
; Function Attrs: noinline optnone uwtable
define weak dso_local void @"?staticMetaObject@JsonWizard@ProjectExplorer@@2UQMetaObject@@B"() #0 {
;  call void @abort()
  ret void
}
                
; Function Attrs: noinline optnone uwtable
define weak dso_local void @"?boolFromVariant@JsonWizard@ProjectExplorer@@SA_NAEBVQVariant@@PEAVMacroExpander@Utils@@@Z"() #0 {
;  call void @abort()
  ret void
}
                
; Function Attrs: noinline optnone uwtable
define weak dso_local void @"?OtherSelection@TextEditorWidget@TextEditor@@2VId@Utils@@A"() #0 {
;  call void @abort()
  ret void
}
                
; Function Attrs: noinline optnone uwtable
define weak dso_local void @"?setCodeFoldingSupported@TextEditorWidget@TextEditor@@QEAAX_N@Z"() #0 {
;  call void @abort()
  ret void
}
                
; Function Attrs: noinline optnone uwtable
define weak dso_local void @"?setRevisionsVisible@TextEditorWidget@TextEditor@@QEAAX_N@Z"() #0 {
;  call void @abort()
  ret void
}
                
; Function Attrs: noinline optnone uwtable
define weak dso_local void @"?finished@ShellCommand@Utils@@QEAAX_NHAEBVQVariant@@@Z"() #0 {
;  call void @abort()
  ret void
}
                
; Function Attrs: noinline optnone uwtable
define weak dso_local void @"?firstVisibleBlockNumber@TextEditorWidget@TextEditor@@QEBAHXZ"() #0 {
;  call void @abort()
  ret void
}
                
; Function Attrs: noinline optnone uwtable
define weak dso_local void @"?lastVisibleBlockNumber@TextEditorWidget@TextEditor@@QEBAHXZ"() #0 {
;  call void @abort()
  ret void
}
                
; Function Attrs: noinline optnone uwtable
define weak dso_local void @"?centerVisibleBlockNumber@TextEditorWidget@TextEditor@@QEBAHXZ"() #0 {
;  call void @abort()
  ret void
}
                
; Function Attrs: noinline optnone uwtable
define weak dso_local void @"?staticMetaObject@ShellCommand@Utils@@2UQMetaObject@@B"() #0 {
;  call void @abort()
  ret void
}
                
; Function Attrs: noinline optnone uwtable
define weak dso_local void @"?descriptionEdit@SubmitEditorWidget@VcsBase@@QEBAPEAVCompletingTextEdit@Utils@@XZ"() #0 {
;  call void @abort()
  ret void
}
                
; Function Attrs: noinline optnone uwtable
define weak dso_local void @"?addDescriptionEditContextMenuAction@SubmitEditorWidget@VcsBase@@QEAAXPEAVQAction@@@Z"() #0 {
;  call void @abort()
  ret void
}
                
; Function Attrs: noinline optnone uwtable
define weak dso_local void @"?settingsChanged@VcsPlugin@Internal@VcsBase@@QEAAXAEBVCommonVcsSettings@23@@Z"() #0 {
;  call void @abort()
  ret void
}
                
; Function Attrs: noinline optnone uwtable
define weak dso_local void @"??0BaseTextFind@Core@@QEAA@PEAVQTextEdit@@@Z"() #0 {
;  call void @abort()
  ret void
}
                
; Function Attrs: noinline optnone uwtable
define weak dso_local void @"?nickNameModel@VcsPlugin@Internal@VcsBase@@QEAAPEAVQStandardItemModel@@XZ"() #0 {
;  call void @abort()
  ret void
}
                
; Function Attrs: noinline optnone uwtable
define weak dso_local void @"?nickNameList@NickNameDialog@Internal@VcsBase@@SA?AVQStringList@@PEBVQStandardItemModel@@@Z"() #0 {
;  call void @abort()
  ret void
}
                
; Function Attrs: noinline optnone uwtable
define weak dso_local void @"?addSubmitFieldWidget@SubmitEditorWidget@VcsBase@@QEAAXPEAVSubmitFieldWidget@2@@Z"() #0 {
;  call void @abort()
  ret void
}
                
; Function Attrs: noinline optnone uwtable
define weak dso_local void @"?setLineWrapWidth@SubmitEditorWidget@VcsBase@@QEAAXH@Z"() #0 {
;  call void @abort()
  ret void
}
                
; Function Attrs: noinline optnone uwtable
define weak dso_local void @"?setLineWrap@SubmitEditorWidget@VcsBase@@QEAAX_N@Z"() #0 {
;  call void @abort()
  ret void
}
                
; Function Attrs: noinline optnone uwtable
define weak dso_local void @"?submitFieldWidgets@SubmitEditorWidget@VcsBase@@QEBA?AV?$QList@PEAVSubmitFieldWidget@VcsBase@@@@XZ"() #0 {
;  call void @abort()
  ret void
}
                
; Function Attrs: noinline optnone uwtable
define weak dso_local void @"?registerActions@SubmitEditorWidget@VcsBase@@QEAAXPEAVQAction@@000@Z"() #0 {
;  call void @abort()
  ret void
}
                
; Function Attrs: noinline optnone uwtable
define weak dso_local void @"?fileListSelectionMode@SubmitEditorWidget@VcsBase@@QEBA?AW4SelectionMode@QAbstractItemView@@XZ"() #0 {
;  call void @abort()
  ret void
}
                
; Function Attrs: noinline optnone uwtable
define weak dso_local void @"?setFileListSelectionMode@SubmitEditorWidget@VcsBase@@QEAAXW4SelectionMode@QAbstractItemView@@@Z"() #0 {
;  call void @abort()
  ret void
}
                
; Function Attrs: noinline optnone uwtable
define weak dso_local void @"?isEmptyFileListEnabled@SubmitEditorWidget@VcsBase@@QEBA_NXZ"() #0 {
;  call void @abort()
  ret void
}
                
; Function Attrs: noinline optnone uwtable
define weak dso_local void @"?setEmptyFileListEnabled@SubmitEditorWidget@VcsBase@@QEAAX_N@Z"() #0 {
;  call void @abort()
  ret void
}
                
; Function Attrs: noinline optnone uwtable
define weak dso_local void @"?lineWrap@SubmitEditorWidget@VcsBase@@QEBA_NXZ"() #0 {
;  call void @abort()
  ret void
}
                
; Function Attrs: noinline optnone uwtable
define weak dso_local void @"?lineWrapWidth@SubmitEditorWidget@VcsBase@@QEBAHXZ"() #0 {
;  call void @abort()
  ret void
}
                
; Function Attrs: noinline optnone uwtable
define weak dso_local void @"?checkedFiles@SubmitEditorWidget@VcsBase@@QEBA?AVQStringList@@XZ"() #0 {
;  call void @abort()
  ret void
}
                
; Function Attrs: noinline optnone uwtable
define weak dso_local void @"?fileModel@SubmitEditorWidget@VcsBase@@QEBAPEAVSubmitFileModel@2@XZ"() #0 {
;  call void @abort()
  ret void
}
                
; Function Attrs: noinline optnone uwtable
define weak dso_local void @"?selectedRows@SubmitEditorWidget@VcsBase@@QEBA?AV?$QList@H@@XZ"() #0 {
;  call void @abort()
  ret void
}
                
; Function Attrs: noinline optnone uwtable
define weak dso_local void @"?setFileModel@SubmitEditorWidget@VcsBase@@QEAAXPEAVSubmitFileModel@2@@Z"() #0 {
;  call void @abort()
  ret void
}
                
; Function Attrs: noinline optnone uwtable
define weak dso_local void @"?setSelectedRows@SubmitEditorWidget@VcsBase@@QEAAXAEBV?$QList@H@@@Z"() #0 {
;  call void @abort()
  ret void
}
                
; Function Attrs: noinline optnone uwtable
define weak dso_local void @"?descriptionText@SubmitEditorWidget@VcsBase@@QEBA?AVQString@@XZ"() #0 {
;  call void @abort()
  ret void
}
                
; Function Attrs: noinline optnone uwtable
define weak dso_local void @"?setDescriptionText@SubmitEditorWidget@VcsBase@@QEAAXAEBVQString@@@Z"() #0 {
;  call void @abort()
  ret void
}
                
; Function Attrs: noinline optnone uwtable
define weak dso_local void @"?isDescriptionMandatory@SubmitEditorWidget@VcsBase@@QEBA_NXZ"() #0 {
;  call void @abort()
  ret void
}
                
; Function Attrs: noinline optnone uwtable
define weak dso_local void @"?setDescriptionMandatory@SubmitEditorWidget@VcsBase@@QEAAX_N@Z"() #0 {
;  call void @abort()
  ret void
}
                
; Function Attrs: noinline optnone uwtable
define weak dso_local void @"??0NickNameDialog@Internal@VcsBase@@QEAA@PEAVQStandardItemModel@@PEAVQWidget@@@Z"() #0 {
;  call void @abort()
  ret void
}
                
; Function Attrs: noinline optnone uwtable
define weak dso_local void @"?nickName@NickNameDialog@Internal@VcsBase@@QEBA?AVQString@@XZ"() #0 {
;  call void @abort()
  ret void
}
                
; Function Attrs: noinline optnone uwtable
define weak dso_local void @"?setDuplicatedSupported@TextEditorFactory@TextEditor@@QEAAX_N@Z"() #0 {
;  call void @abort()
  ret void
}
                
; Function Attrs: noinline optnone uwtable
define weak dso_local void @"?setMarksVisible@TextEditorFactory@TextEditor@@QEAAX_N@Z"() #0 {
;  call void @abort()
  ret void
}
                
; Function Attrs: noinline optnone uwtable
define weak dso_local void @"??0ShellCommand@Core@@QEAA@AEBVQString@@AEBVQProcessEnvironment@@@Z"() #0 {
;  call void @abort()
  ret void
}
                
; Function Attrs: noinline optnone uwtable
define weak dso_local void @"?started@ShellCommand@Utils@@QEAAXXZ"() #0 {
;  call void @abort()
  ret void
}
                
; Function Attrs: noinline optnone uwtable
define weak dso_local void @"?append@OutputProxy@Utils@@QEAAXAEBVQString@@@Z"() #0 {
;  call void @abort()
  ret void
}
                
; Function Attrs: noinline optnone uwtable
define weak dso_local void @"?appendSilently@OutputProxy@Utils@@QEAAXAEBVQString@@@Z"() #0 {
;  call void @abort()
  ret void
}
                
; Function Attrs: noinline optnone uwtable
define weak dso_local void @"?appendError@OutputProxy@Utils@@QEAAXAEBVQString@@@Z"() #0 {
;  call void @abort()
  ret void
}
                
; Function Attrs: noinline optnone uwtable
define weak dso_local void @"?appendCommand@OutputProxy@Utils@@QEAAXAEBVQString@@AEBVCommandLine@2@@Z"() #0 {
;  call void @abort()
  ret void
}
                
; Function Attrs: noinline optnone uwtable
define weak dso_local void @"?appendMessage@OutputProxy@Utils@@QEAAXAEBVQString@@@Z"() #0 {
;  call void @abort()
  ret void
}
                
; Function Attrs: noinline optnone uwtable
define weak dso_local void @"?staticMetaObject@OutputProxy@Utils@@2UQMetaObject@@B"() #0 {
;  call void @abort()
  ret void
}
                
; Function Attrs: noinline optnone uwtable
define weak dso_local void @"?metaObject@OutputProxy@Utils@@UEBAPEBUQMetaObject@@XZ"() #0 {
;  call void @abort()
  ret void
}
                
; Function Attrs: noinline optnone uwtable
define weak dso_local void @"?qt_metacast@OutputProxy@Utils@@UEAAPEAXPEBD@Z"() #0 {
;  call void @abort()
  ret void
}
                
; Function Attrs: noinline optnone uwtable
define weak dso_local void @"?qt_metacall@OutputProxy@Utils@@UEAAHW4Call@QMetaObject@@HPEAPEAX@Z"() #0 {
;  call void @abort()
  ret void
}
                
; Function Attrs: noinline optnone uwtable
define weak dso_local void @"?stdOutText@ShellCommand@Utils@@QEAAXAEBVQString@@@Z"() #0 {
;  call void @abort()
  ret void
}
                
; Function Attrs: noinline optnone uwtable
define weak dso_local void @"?toolBar@TextEditorWidget@TextEditor@@QEAAPEAVQToolBar@@XZ"() #0 {
;  call void @abort()
  ret void
}
                
; Function Attrs: noinline optnone uwtable
define weak dso_local void @"?success@ShellCommand@Utils@@QEAAXAEBVQVariant@@@Z"() #0 {
;  call void @abort()
  ret void
}
                
; Function Attrs: noinline optnone uwtable
define weak dso_local void @"?clearUniqueId@EditorManager@Core@@SAXPEAVIDocument@2@@Z"() #0 {
;  call void @abort()
  ret void
}
                
; Function Attrs: noinline optnone uwtable
define weak dso_local void @"?saveDocument@EditorManager@Core@@SA_NPEAVIDocument@2@@Z"() #0 {
;  call void @abort()
  ret void
}
                
; Function Attrs: noinline optnone uwtable
define weak dso_local void @"?reload@TextDocument@TextEditor@@QEAA_NPEAVQString@@AEBV3@@Z"() #0 {
;  call void @abort()
  ret void
}
                
; Function Attrs: noinline optnone uwtable
define weak dso_local void @"?saveState@TextEditorWidget@TextEditor@@QEBA?AVQByteArray@@XZ"() #0 {
;  call void @abort()
  ret void
}
                
; Function Attrs: noinline optnone uwtable
define weak dso_local void @"?convertToPlainText@TextEditorWidget@TextEditor@@KA?AVQString@@AEBV3@@Z"() #0 {
;  call void @abort()
  ret void
}
                
; Function Attrs: noinline optnone uwtable
define weak dso_local void @"?setBlockSelection@TextEditorWidget@TextEditor@@QEAAX_N@Z"() #0 {
;  call void @abort()
  ret void
}
                
; Function Attrs: noinline optnone uwtable
define weak dso_local void @"?highlightScrollBarController@TextEditorWidget@TextEditor@@QEBAPEAVHighlightScrollBarController@Core@@XZ"() #0 {
;  call void @abort()
  ret void
}
                
; Function Attrs: noinline optnone uwtable
define weak dso_local void @"?setScrollArea@HighlightScrollBarController@Core@@QEAAXPEAVQAbstractScrollArea@@@Z"() #0 {
;  call void @abort()
  ret void
}
                
; Function Attrs: noinline optnone uwtable
define weak dso_local void @"?useCommonSymbolPaths@SymbolPathsDialog@Internal@Debugger@@SA_NAEA_N0AEAVQString@@@Z"() #0 {
;  call void @abort()
  ret void
}
                
; Function Attrs: noinline optnone uwtable
define weak dso_local void @"?terminate@ShellCommand@Utils@@QEAAXXZ"() #0 {
;  call void @abort()
  ret void
}
                
; Function Attrs: noinline optnone uwtable
define weak dso_local void @"?stdErrText@ShellCommand@Utils@@QEAAXAEBVQString@@@Z"() #0 {
;  call void @abort()
  ret void
}
                
; Function Attrs: noinline optnone uwtable
define weak dso_local void @"?metaObject@ShellCommand@Utils@@UEBAPEBUQMetaObject@@XZ"() #0 {
;  call void @abort()
  ret void
}
                
; Function Attrs: noinline optnone uwtable
define weak dso_local void @"?qt_metacast@ShellCommand@Utils@@UEAAPEAXPEBD@Z"() #0 {
;  call void @abort()
  ret void
}
                
; Function Attrs: noinline optnone uwtable
define weak dso_local void @"?qt_metacall@ShellCommand@Utils@@UEAAHW4Call@QMetaObject@@HPEAPEAX@Z"() #0 {
;  call void @abort()
  ret void
}
                
; Function Attrs: noinline optnone uwtable
define weak dso_local void @"??0ComponentVersion@LanguageUtils@@QEAA@XZ"() #0 {
;  call void @abort()
  ret void
}
                
; Function Attrs: noinline optnone uwtable
define weak dso_local void @"?isValid@ComponentVersion@LanguageUtils@@QEBA_NXZ"() #0 {
;  call void @abort()
  ret void
}
                
; Function Attrs: noinline optnone uwtable
define weak dso_local void @"?NoVersion@ComponentVersion@LanguageUtils@@2HB"() #0 {
;  call void @abort()
  ret void
}
                
; Function Attrs: noinline optnone uwtable
define weak dso_local void @"?MaxVersion@ComponentVersion@LanguageUtils@@2HB"() #0 {
;  call void @abort()
  ret void
}
                
; Function Attrs: noinline optnone uwtable
define weak dso_local void @"??0ComponentVersion@LanguageUtils@@QEAA@HH@Z"() #0 {
;  call void @abort()
  ret void
}
                
; Function Attrs: noinline optnone uwtable
define weak dso_local void @"?updateFingerprint@FakeMetaObject@LanguageUtils@@QEAAXXZ"() #0 {
;  call void @abort()
  ret void
}
                
; Function Attrs: noinline optnone uwtable
define weak dso_local void @"?addExport@FakeMetaObject@LanguageUtils@@QEAAXAEBVQString@@0VComponentVersion@2@@Z"() #0 {
;  call void @abort()
  ret void
}
                
; Function Attrs: noinline optnone uwtable
define weak dso_local void @"?setIsCreatable@FakeMetaObject@LanguageUtils@@QEAAX_N@Z"() #0 {
;  call void @abort()
  ret void
}
                
; Function Attrs: noinline optnone uwtable
define weak dso_local void @"?setIsSingleton@FakeMetaObject@LanguageUtils@@QEAAX_N@Z"() #0 {
;  call void @abort()
  ret void
}
                
; Function Attrs: noinline optnone uwtable
define weak dso_local void @"?setClassName@FakeMetaObject@LanguageUtils@@QEAAXAEBVQString@@@Z"() #0 {
;  call void @abort()
  ret void
}
                
; Function Attrs: noinline optnone uwtable
define weak dso_local void @"??0FakeMetaObject@LanguageUtils@@QEAA@XZ"() #0 {
;  call void @abort()
  ret void
}
                
; Function Attrs: noinline optnone uwtable
define weak dso_local void @"??0FakeMetaMethod@LanguageUtils@@QEAA@AEBVQString@@0@Z"() #0 {
;  call void @abort()
  ret void
}
                
; Function Attrs: noinline optnone uwtable
define weak dso_local void @"?setMethodType@FakeMetaMethod@LanguageUtils@@QEAAXH@Z"() #0 {
;  call void @abort()
  ret void
}
                
; Function Attrs: noinline optnone uwtable
define weak dso_local void @"?addParameter@FakeMetaMethod@LanguageUtils@@QEAAXAEBVQString@@0@Z"() #0 {
;  call void @abort()
  ret void
}
                
; Function Attrs: noinline optnone uwtable
define weak dso_local void @"?addMethod@FakeMetaObject@LanguageUtils@@QEAAXAEBVFakeMetaMethod@2@@Z"() #0 {
;  call void @abort()
  ret void
}
                
; Function Attrs: noinline optnone uwtable
define weak dso_local void @"??0FakeMetaProperty@LanguageUtils@@QEAA@AEBVQString@@0_N11H@Z"() #0 {
;  call void @abort()
  ret void
}
                
; Function Attrs: noinline optnone uwtable
define weak dso_local void @"?addProperty@FakeMetaObject@LanguageUtils@@QEAAXAEBVFakeMetaProperty@2@@Z"() #0 {
;  call void @abort()
  ret void
}
                
; Function Attrs: noinline optnone uwtable
define weak dso_local void @"??0FakeMetaEnum@LanguageUtils@@QEAA@AEBVQString@@@Z"() #0 {
;  call void @abort()
  ret void
}
                
; Function Attrs: noinline optnone uwtable
define weak dso_local void @"?addKey@FakeMetaEnum@LanguageUtils@@QEAAXAEBVQString@@@Z"() #0 {
;  call void @abort()
  ret void
}
                
; Function Attrs: noinline optnone uwtable
define weak dso_local void @"?addEnum@FakeMetaObject@LanguageUtils@@QEAAXAEBVFakeMetaEnum@2@@Z"() #0 {
;  call void @abort()
  ret void
}
                
; Function Attrs: noinline optnone uwtable
define weak dso_local void @"?setSuperclassName@FakeMetaObject@LanguageUtils@@QEAAXAEBVQString@@@Z"() #0 {
;  call void @abort()
  ret void
}
                
; Function Attrs: noinline optnone uwtable
define weak dso_local void @"?fingerprint@FakeMetaObject@LanguageUtils@@QEBA?AVQByteArray@@XZ"() #0 {
;  call void @abort()
  ret void
}
                
; Function Attrs: noinline optnone uwtable
define weak dso_local void @"?addToHash@ComponentVersion@LanguageUtils@@QEBAXAEAVQCryptographicHash@@@Z"() #0 {
;  call void @abort()
  ret void
}
                
; Function Attrs: noinline optnone uwtable
define weak dso_local void @"?exports@FakeMetaObject@LanguageUtils@@QEBA?AV?$QList@VExport@FakeMetaObject@LanguageUtils@@@@XZ"() #0 {
;  call void @abort()
  ret void
}
                
; Function Attrs: noinline optnone uwtable
define weak dso_local void @"??0ComponentVersion@LanguageUtils@@QEAA@AEBVQString@@@Z"() #0 {
;  call void @abort()
  ret void
}
                
; Function Attrs: noinline optnone uwtable
define weak dso_local void @"?keyCount@FakeMetaEnum@LanguageUtils@@QEBAHXZ"() #0 {
;  call void @abort()
  ret void
}
                
; Function Attrs: noinline optnone uwtable
define weak dso_local void @"?key@FakeMetaEnum@LanguageUtils@@QEBA?AVQString@@H@Z"() #0 {
;  call void @abort()
  ret void
}
                
; Function Attrs: noinline optnone uwtable
define weak dso_local void @"?methodCount@FakeMetaObject@LanguageUtils@@QEBAHXZ"() #0 {
;  call void @abort()
  ret void
}
                
; Function Attrs: noinline optnone uwtable
define weak dso_local void @"?method@FakeMetaObject@LanguageUtils@@QEBA?AVFakeMetaMethod@2@H@Z"() #0 {
;  call void @abort()
  ret void
}
                
; Function Attrs: noinline optnone uwtable
define weak dso_local void @"?revision@FakeMetaMethod@LanguageUtils@@QEBAHXZ"() #0 {
;  call void @abort()
  ret void
}
                
; Function Attrs: noinline optnone uwtable
define weak dso_local void @"?methodName@FakeMetaMethod@LanguageUtils@@QEBA?AVQString@@XZ"() #0 {
;  call void @abort()
  ret void
}
                
; Function Attrs: noinline optnone uwtable
define weak dso_local void @"?methodType@FakeMetaMethod@LanguageUtils@@QEBAHXZ"() #0 {
;  call void @abort()
  ret void
}
                
; Function Attrs: noinline optnone uwtable
define weak dso_local void @"?access@FakeMetaMethod@LanguageUtils@@QEBAHXZ"() #0 {
;  call void @abort()
  ret void
}
                
; Function Attrs: noinline optnone uwtable
define weak dso_local void @"?propertyCount@FakeMetaObject@LanguageUtils@@QEBAHXZ"() #0 {
;  call void @abort()
  ret void
}
                
; Function Attrs: noinline optnone uwtable
define weak dso_local void @"?property@FakeMetaObject@LanguageUtils@@QEBA?AVFakeMetaProperty@2@H@Z"() #0 {
;  call void @abort()
  ret void
}
                
; Function Attrs: noinline optnone uwtable
define weak dso_local void @"?revision@FakeMetaProperty@LanguageUtils@@QEBAHXZ"() #0 {
;  call void @abort()
  ret void
}
                
; Function Attrs: noinline optnone uwtable
define weak dso_local void @"?name@FakeMetaProperty@LanguageUtils@@QEBA?AVQString@@XZ"() #0 {
;  call void @abort()
  ret void
}
                
; Function Attrs: noinline optnone uwtable
define weak dso_local void @"?typeName@FakeMetaProperty@LanguageUtils@@QEBA?AVQString@@XZ"() #0 {
;  call void @abort()
  ret void
}
                
; Function Attrs: noinline optnone uwtable
define weak dso_local void @"?attachedTypeName@FakeMetaObject@LanguageUtils@@QEBA?AVQString@@XZ"() #0 {
;  call void @abort()
  ret void
}
                
; Function Attrs: noinline optnone uwtable
define weak dso_local void @"?propertyIndex@FakeMetaObject@LanguageUtils@@QEBAHAEBVQString@@@Z"() #0 {
;  call void @abort()
  ret void
}
                
; Function Attrs: noinline optnone uwtable
define weak dso_local void @"?isWritable@FakeMetaProperty@LanguageUtils@@QEBA_NXZ"() #0 {
;  call void @abort()
  ret void
}
                
; Function Attrs: noinline optnone uwtable
define weak dso_local void @"?isList@FakeMetaProperty@LanguageUtils@@QEBA_NXZ"() #0 {
;  call void @abort()
  ret void
}
                
; Function Attrs: noinline optnone uwtable
define weak dso_local void @"?isPointer@FakeMetaProperty@LanguageUtils@@QEBA_NXZ"() #0 {
;  call void @abort()
  ret void
}
                
; Function Attrs: noinline optnone uwtable
define weak dso_local void @"?defaultPropertyName@FakeMetaObject@LanguageUtils@@QEBA?AVQString@@XZ"() #0 {
;  call void @abort()
  ret void
}
                
; Function Attrs: noinline optnone uwtable
define weak dso_local void @"?enumeratorIndex@FakeMetaObject@LanguageUtils@@QEBAHAEBVQString@@@Z"() #0 {
;  call void @abort()
  ret void
}
                
; Function Attrs: noinline optnone uwtable
define weak dso_local void @"??0FakeMetaEnum@LanguageUtils@@QEAA@XZ"() #0 {
;  call void @abort()
  ret void
}
                
; Function Attrs: noinline optnone uwtable
define weak dso_local void @"??OLanguageUtils@@YA_NAEBVComponentVersion@0@0@Z"() #0 {
;  call void @abort()
  ret void
}
                
; Function Attrs: noinline optnone uwtable
define weak dso_local void @"??NLanguageUtils@@YA_NAEBVComponentVersion@0@0@Z"() #0 {
;  call void @abort()
  ret void
}
                
; Function Attrs: noinline optnone uwtable
define weak dso_local void @"??0Export@FakeMetaObject@LanguageUtils@@QEAA@XZ"() #0 {
;  call void @abort()
  ret void
}
                
; Function Attrs: noinline optnone uwtable
define weak dso_local void @"??8LanguageUtils@@YA_NAEBVComponentVersion@0@0@Z"() #0 {
;  call void @abort()
  ret void
}
                
; Function Attrs: noinline optnone uwtable
define weak dso_local void @"??MLanguageUtils@@YA_NAEBVComponentVersion@0@0@Z"() #0 {
;  call void @abort()
  ret void
}
                
; Function Attrs: noinline optnone uwtable
define weak dso_local void @"?setDefaultPropertyName@FakeMetaObject@LanguageUtils@@QEAAXAEBVQString@@@Z"() #0 {
;  call void @abort()
  ret void
}
                
; Function Attrs: noinline optnone uwtable
define weak dso_local void @"?setAttachedTypeName@FakeMetaObject@LanguageUtils@@QEAAXAEBVQString@@@Z"() #0 {
;  call void @abort()
  ret void
}
                
; Function Attrs: noinline optnone uwtable
define weak dso_local void @"?setIsComposite@FakeMetaObject@LanguageUtils@@QEAAX_N@Z"() #0 {
;  call void @abort()
  ret void
}
                
; Function Attrs: noinline optnone uwtable
define weak dso_local void @"??0FakeMetaMethod@LanguageUtils@@QEAA@XZ"() #0 {
;  call void @abort()
  ret void
}
                
; Function Attrs: noinline optnone uwtable
define weak dso_local void @"?setMethodName@FakeMetaMethod@LanguageUtils@@QEAAXAEBVQString@@@Z"() #0 {
;  call void @abort()
  ret void
}
                
; Function Attrs: noinline optnone uwtable
define weak dso_local void @"?setReturnType@FakeMetaMethod@LanguageUtils@@QEAAXAEBVQString@@@Z"() #0 {
;  call void @abort()
  ret void
}
                
; Function Attrs: noinline optnone uwtable
define weak dso_local void @"?setRevision@FakeMetaMethod@LanguageUtils@@QEAAXH@Z"() #0 {
;  call void @abort()
  ret void
}
                
; Function Attrs: noinline optnone uwtable
define weak dso_local void @"?setName@FakeMetaEnum@LanguageUtils@@QEAAXAEBVQString@@@Z"() #0 {
;  call void @abort()
  ret void
}
                
; Function Attrs: noinline optnone uwtable
define weak dso_local void @"?setExportMetaObjectRevision@FakeMetaObject@LanguageUtils@@QEAAXHH@Z"() #0 {
;  call void @abort()
  ret void
}
                
; Function Attrs: noinline optnone uwtable
define weak dso_local void @"?saveDocument@EditorManager@Core@@SAXXZ"() #0 {
;  call void @abort()
  ret void
}
                
; Function Attrs: noinline optnone uwtable
define weak dso_local void @"?saveDocumentAs@EditorManager@Core@@SAXXZ"() #0 {
;  call void @abort()
  ret void
}
                
; Function Attrs: noinline optnone uwtable
define weak dso_local void @"?revertToSaved@EditorManager@Core@@SAXXZ"() #0 {
;  call void @abort()
  ret void
}
                
; Function Attrs: noinline optnone uwtable
define weak dso_local void @"?closeOtherDocuments@EditorManager@Core@@SAXXZ"() #0 {
;  call void @abort()
  ret void
}
                
; Function Attrs: noinline optnone uwtable
define weak dso_local void @"?splitSideBySide@EditorManager@Core@@SAXXZ"() #0 {
;  call void @abort()
  ret void
}
                
; Function Attrs: noinline optnone uwtable
define weak dso_local void @"?gotoOtherSplit@EditorManager@Core@@SAXXZ"() #0 {
;  call void @abort()
  ret void
}
                
; Function Attrs: noinline optnone uwtable
define weak dso_local void @"?goBackInNavigationHistory@EditorManager@Core@@SAXXZ"() #0 {
;  call void @abort()
  ret void
}
                
; Function Attrs: noinline optnone uwtable
define weak dso_local void @"?goForwardInNavigationHistory@EditorManager@Core@@SAXXZ"() #0 {
;  call void @abort()
  ret void
}
                
; Function Attrs: noinline optnone uwtable
define weak dso_local void @"?saveDocument@EditorManagerPrivate@Internal@Core@@SA_NPEAVIDocument@3@@Z"() #0 {
;  call void @abort()
  ret void
}
                
; Function Attrs: noinline optnone uwtable
define weak dso_local void @"?saveDocumentAs@EditorManagerPrivate@Internal@Core@@SA_NPEAVIDocument@3@@Z"() #0 {
;  call void @abort()
  ret void
}
                
; Function Attrs: noinline optnone uwtable
define weak dso_local void @"?split@EditorManagerPrivate@Internal@Core@@SAXW4Orientation@Qt@@@Z"() #0 {
;  call void @abort()
  ret void
}
                
; Function Attrs: noinline optnone uwtable
define weak dso_local void @"?removeAllSplits@EditorManagerPrivate@Internal@Core@@SAXXZ"() #0 {
;  call void @abort()
  ret void
}
                
; Function Attrs: noinline optnone uwtable
define weak dso_local void @"?gotoPreviousSplit@EditorManagerPrivate@Internal@Core@@SAXXZ"() #0 {
;  call void @abort()
  ret void
}
                
; Function Attrs: noinline optnone uwtable
define weak dso_local void @"?gotoNextSplit@EditorManagerPrivate@Internal@Core@@SAXXZ"() #0 {
;  call void @abort()
  ret void
}
                
; Function Attrs: noinline optnone uwtable
define weak dso_local void @"?handleDocumentStateChange@EditorManagerPrivate@Internal@Core@@QEAAXXZ"() #0 {
;  call void @abort()
  ret void
}
                
; Function Attrs: noinline optnone uwtable
define weak dso_local void @"?editorAreaDestroyed@EditorManagerPrivate@Internal@Core@@QEAAXPEAVQObject@@@Z"() #0 {
;  call void @abort()
  ret void
}
                
; Function Attrs: noinline optnone uwtable
define weak dso_local void @"?clearRecentFiles@DocumentManager@Core@@QEAAXXZ"() #0 {
;  call void @abort()
  ret void
}
                
; Function Attrs: noinline optnone uwtable
define weak dso_local void @"?qt_metacast@ILocatorFilter@Core@@UEAAPEAXPEBD@Z"() #0 {
;  call void @abort()
  ret void
}
                
; Function Attrs: noinline optnone uwtable
define weak dso_local void @"?qt_metacall@ILocatorFilter@Core@@UEAAHW4Call@QMetaObject@@HPEAPEAX@Z"() #0 {
;  call void @abort()
  ret void
}
                
; Function Attrs: noinline optnone uwtable
define weak dso_local void @"?staticMetaObject@ILocatorFilter@Core@@2UQMetaObject@@B"() #0 {
;  call void @abort()
  ret void
}
                
; Function Attrs: noinline optnone uwtable
define weak dso_local void @"?inSnippetMode@TextEditorWidget@TextEditor@@QEAAXPEA_N@Z"() #0 {
;  call void @abort()
  ret void
}
                
; Function Attrs: noinline optnone uwtable
define weak dso_local void @"?verticalBlockSelectionFirstColumn@TextEditorWidget@TextEditor@@QEBAHXZ"() #0 {
;  call void @abort()
  ret void
}
                
; Function Attrs: noinline optnone uwtable
define weak dso_local void @"?verticalBlockSelectionLastColumn@TextEditorWidget@TextEditor@@QEBAHXZ"() #0 {
;  call void @abort()
  ret void
}
                
; Function Attrs: noinline optnone uwtable
define weak dso_local void @"?qt_metacast@IFindFilter@Core@@UEAAPEAXPEBD@Z"() #0 {
;  call void @abort()
  ret void
}
                
; Function Attrs: noinline optnone uwtable
define weak dso_local void @"?qt_metacall@IFindFilter@Core@@UEAAHW4Call@QMetaObject@@HPEAPEAX@Z"() #0 {
;  call void @abort()
  ret void
}
                
; Function Attrs: noinline optnone uwtable
define weak dso_local void @"?qt_metacast@TextDocument@TextEditor@@UEAAPEAXPEBD@Z"() #0 {
;  call void @abort()
  ret void
}
                
; Function Attrs: noinline optnone uwtable
define weak dso_local void @"?qt_metacall@TextDocument@TextEditor@@UEAAHW4Call@QMetaObject@@HPEAPEAX@Z"() #0 {
;  call void @abort()
  ret void
}
                
; Function Attrs: noinline optnone uwtable
define weak dso_local void @"?currentItemChanged@CppQuickFixProjectSettingsWidget@Internal@CppEditor@@AEAAXXZ"() #0 {
;  call void @abort()
  ret void
}
                
; Function Attrs: noinline optnone uwtable
define weak dso_local void @"?buttonCustomClicked@CppQuickFixProjectSettingsWidget@Internal@CppEditor@@AEAAXXZ"() #0 {
;  call void @abort()
  ret void
}
                
; Function Attrs: noinline optnone uwtable
define weak dso_local void @"?currentCustomItemChanged@CppQuickFixSettingsWidget@Internal@CppEditor@@AEAAXPEAVQListWidgetItem@@0@Z"() #0 {
;  call void @abort()
  ret void
}
                
; Function Attrs: noinline optnone uwtable
define weak dso_local void @"?qt_metacast@BaseFileFilter@Core@@UEAAPEAXPEBD@Z"() #0 {
;  call void @abort()
  ret void
}
                
; Function Attrs: noinline optnone uwtable
define weak dso_local void @"?qt_metacall@BaseFileFilter@Core@@UEAAHW4Call@QMetaObject@@HPEAPEAX@Z"() #0 {
;  call void @abort()
  ret void
}
                
; Function Attrs: noinline optnone uwtable
define weak dso_local void @"?staticMetaObject@BaseFileFilter@Core@@2UQMetaObject@@B"() #0 {
;  call void @abort()
  ret void
}
                
; Function Attrs: noinline optnone uwtable
define weak dso_local void @"?updateSubmitAction@SubmitEditorWidget@VcsBase@@QEAAXXZ"() #0 {
;  call void @abort()
  ret void
}
                
; Function Attrs: noinline optnone uwtable
define weak dso_local void @"?descriptionTextChanged@SubmitEditorWidget@VcsBase@@IEAAXXZ"() #0 {
;  call void @abort()
  ret void
}
                
attributes #0 = { noinline optnone uwtable "correctly-rounded-divide-sqrt-fp-math"="false" "disable-tail-calls"="false" "frame-pointer"="none" "less-precise-fpmad"="false" "min-legal-vector-width"="0" "no-infs-fp-math"="false" "no-jump-tables"="false" "no-nans-fp-math"="false" "no-signed-zeros-fp-math"="false" "no-trapping-math"="true" "stack-protector-buffer-size"="8" "target-cpu"="x86-64" "target-features"="+cx8,+fxsr,+mmx,+sse,+sse2,+x87" "unsafe-fp-math"="false" "use-soft-float"="false" }
attributes #1 = { "correctly-rounded-divide-sqrt-fp-math"="false" "disable-tail-calls"="false" "frame-pointer"="none" "less-precise-fpmad"="false" "no-infs-fp-math"="false" "no-nans-fp-math"="false" "no-signed-zeros-fp-math"="false" "no-trapping-math"="true" "stack-protector-buffer-size"="8" "target-cpu"="x86-64" "target-features"="+cx8,+fxsr,+mmx,+sse,+sse2,+x87" "unsafe-fp-math"="false" "use-soft-float"="false" }
attributes #2 = { noinline nounwind optnone uwtable "correctly-rounded-divide-sqrt-fp-math"="false" "disable-tail-calls"="false" "frame-pointer"="none" "less-precise-fpmad"="false" "min-legal-vector-width"="0" "no-infs-fp-math"="false" "no-jump-tables"="false" "no-nans-fp-math"="false" "no-signed-zeros-fp-math"="false" "no-trapping-math"="true" "stack-protector-buffer-size"="8" "target-cpu"="x86-64" "target-features"="+cx8,+fxsr,+mmx,+sse,+sse2,+x87" "unsafe-fp-math"="false" "use-soft-float"="false" }

!llvm.module.flags = !{!0, !1}
!llvm.ident = !{!2}

!0 = !{i32 1, !"wchar_size", i32 2}
!1 = !{i32 7, !"PIC Level", i32 2}
!2 = !{!"clang version 11.0.0 (git://code.qt.io/clang/llvm-project.git e43a39a3ed2ec0a05638956cdebfd2f7cf164692)"}
        