; ModuleID = 'unimpl.cpp'
source_filename = "unimpl.cpp"
target datalayout = "e-m:w-p270:32:32-p271:32:32-p272:64:64-i64:64-f80:128-n8:16:32:64-S128"
target triple = "x86_64-pc-windows-msvc19.11.0"

; Function Attrs: noinline optnone uwtable
define weak dso_local void @_ZN5Zydis11DisassembleEmPKh() #0 {
  call void @abort()
  ret void
}

declare dso_local void @abort() #1

; Function Attrs: noinline optnone uwtable
define weak dso_local void @_ZN5Zydis11DisassembleEmPKhi() #0 {
  call void @abort()
  ret void
}

; Function Attrs: noinline optnone uwtable
define weak dso_local void @_ZN5Zydis15DisassembleSafeEmPKhi() #0 {
  call void @abort()
  ret void
}

; Function Attrs: noinline nounwind optnone uwtable
define dso_local zeroext i1 @_ZN5Zydis16GlobalInitializeEv() #2 {
  ret i1 false
}

; Function Attrs: noinline nounwind optnone uwtable
define dso_local zeroext i1 @_ZN5ZydisC1Ev() #2 {
  ret i1 false
}

; Function Attrs: noinline nounwind optnone uwtable
define dso_local zeroext i1 @_ZN5ZydisD1Ev() #2 {
  ret i1 false
}

; Function Attrs: noinline optnone uwtable
define weak dso_local void @_ZNK5Zydis10BytesGroupEPhS0_S0_S0_S0_() #0 {
  call void @abort()
  ret void
}

; Function Attrs: noinline optnone uwtable
define weak dso_local void @_ZNK5Zydis11MemSizeNameEi() #0 {
  call void @abort()
  ret void
}

; Function Attrs: noinline optnone uwtable
define weak dso_local void @_ZNK5Zydis12IsBranchTypeEz() #0 {
  call void @abort()
  ret void
}

; Function Attrs: noinline optnone uwtable
define weak dso_local void @_ZNK5Zydis14ResolveOpValueEiRKNSt3__18functionIFm13ZydisRegisterEEE() #0 {
  call void @abort()
  ret void
}

; Function Attrs: noinline optnone uwtable
define weak dso_local void @_ZNK5Zydis15InstructionTextEb() #0 {
  call void @abort()
  ret void
}

; Function Attrs: noinline optnone uwtable
define weak dso_local void @_ZNK5Zydis20getVectorElementTypeEi() #0 {
  call void @abort()
  ret void
}

; Function Attrs: noinline optnone uwtable
define weak dso_local void @_ZNK5Zydis22IsBranchGoingToExecuteEmm() #0 {
  call void @abort()
  ret void
}

; Function Attrs: noinline optnone uwtable
define weak dso_local void @_ZNK5Zydis4SizeEv() #0 {
  call void @abort()
  ret void
}

; Function Attrs: noinline optnone uwtable
define weak dso_local void @_ZNK5Zydis5IsNopEv() #0 {
  call void @abort()
  ret void
}

; Function Attrs: noinline optnone uwtable
define weak dso_local void @_ZNK5Zydis7AddressEv() #0 {
  call void @abort()
  ret void
}

; Function Attrs: noinline optnone uwtable
define weak dso_local void @_ZNK5Zydis7OpCountEv() #0 {
  call void @abort()
  ret void
}

; Function Attrs: noinline optnone uwtable
define weak dso_local void @_ZNK5Zydis7RegInfoEPh() #0 {
  call void @abort()
  ret void
}

; Function Attrs: noinline optnone uwtable
define weak dso_local void @_ZNK5Zydis7RegNameE13ZydisRegister() #0 {
  call void @abort()
  ret void
}

; Function Attrs: noinline optnone uwtable
define weak dso_local void @_ZNK5Zydis7SuccessEv() #0 {
  call void @abort()
  ret void
}

; Function Attrs: noinline optnone uwtable
define weak dso_local void @_ZNK5Zydis8FlagNameE12ZydisCPUFlag() #0 {
  call void @abort()
  ret void
}

; Function Attrs: noinline optnone uwtable
define weak dso_local void @_ZNK5Zydis8GetInstrEv() #0 {
  call void @abort()
  ret void
}

; Function Attrs: noinline optnone uwtable
define weak dso_local void @_ZNK5Zydis8MnemonicEv() #0 {
  call void @abort()
  ret void
}

; Function Attrs: noinline optnone uwtable
define weak dso_local void @_ZNK5Zydis9IsPushPopEv() #0 {
  call void @abort()
  ret void
}

; Function Attrs: noinline optnone uwtable
define weak dso_local void @_ZNK5Zydis9IsUnusualEv() #0 {
  call void @abort()
  ret void
}

; Function Attrs: noinline optnone uwtable
define weak dso_local void @_ZNK5ZydisixEi() #0 {
  call void @abort()
  ret void
}

; Function Attrs: noinline optnone uwtable
define weak dso_local void @ld2str() #0 {
  call void @abort()
  ret void
}

; Function Attrs: noinline optnone uwtable
define weak dso_local void @str2ld() #0 {
  call void @abort()
  ret void
}

; Function Attrs: noinline optnone uwtable
define weak dso_local void @_Z5qHashRK6QColor() #0 {
  call void @abort()
  ret void
}

; Function Attrs: noinline optnone uwtable
define weak dso_local void @_ZN10QmlJSTools12SemanticInfo17setRootScopeChainE14QSharedPointerIKN5QmlJS10ScopeChainEE() #0 {
  call void @abort()
  ret void
}

; Function Attrs: noinline optnone uwtable
define weak dso_local void @_ZN10QmlJSTools20CreatorCodeFormatterC1ERKN10TextEditor11TabSettingsE() #0 {
  call void @abort()
  ret void
}

; Function Attrs: noinline optnone uwtable
define weak dso_local void @_ZN10QmlJSTools23QmlJSRefactoringChanges4fileEPN10TextEditor16TextEditorWidgetERK14QSharedPointerIKN5QmlJS8DocumentEE() #0 {
  call void @abort()
  ret void
}

; Function Attrs: noinline optnone uwtable
define weak dso_local void @_ZN10QmlJSTools23QmlJSRefactoringChangesC1EPN5QmlJS21ModelManagerInterfaceERKNS1_8SnapshotE() #0 {
  call void @abort()
  ret void
}

; Function Attrs: noinline optnone uwtable
define weak dso_local void @_ZN10TextEditor14BaseTextEditor10addContextEN5Utils2IdE() #0 {
  call void @abort()
  ret void
}

; Function Attrs: noinline optnone uwtable
define weak dso_local void @_ZN10TextEditor14BaseTextEditor12restoreStateERK10QByteArray() #0 {
  call void @abort()
  ret void
}

; Function Attrs: noinline optnone uwtable
define weak dso_local void @_ZN10TextEditor14BaseTextEditor13setTextCursorERK11QTextCursor() #0 {
  call void @abort()
  ret void
}

; Function Attrs: noinline optnone uwtable
define weak dso_local void @_ZN10TextEditor14BaseTextEditor14setContextHelpERKN4Core8HelpItemE() #0 {
  call void @abort()
  ret void
}

; Function Attrs: noinline optnone uwtable
define weak dso_local void @_ZN10TextEditor14BaseTextEditor17currentTextEditorEv() #0 {
  call void @abort()
  ret void
}

; Function Attrs: noinline optnone uwtable
define weak dso_local void @_ZN10TextEditor14BaseTextEditor17setCursorPositionEi() #0 {
  call void @abort()
  ret void
}

; Function Attrs: noinline optnone uwtable
define weak dso_local void @_ZN10TextEditor14BaseTextEditor6insertERK7QString() #0 {
  call void @abort()
  ret void
}

; Function Attrs: noinline optnone uwtable
define weak dso_local void @_ZN10TextEditor14BaseTextEditor6removeEi() #0 {
  call void @abort()
  ret void
}

; Function Attrs: noinline optnone uwtable
define weak dso_local void @_ZN10TextEditor14BaseTextEditor6selectEi() #0 {
  call void @abort()
  ret void
}

; Function Attrs: noinline optnone uwtable
define weak dso_local void @_ZN10TextEditor14BaseTextEditor7replaceEiRK7QString() #0 {
  call void @abort()
  ret void
}

; Function Attrs: noinline optnone uwtable
define weak dso_local void @_ZN10TextEditor14BaseTextEditor7toolBarEv() #0 {
  call void @abort()
  ret void
}

; Function Attrs: noinline optnone uwtable
define weak dso_local void @_ZN10TextEditor14BaseTextEditor8gotoLineEiib() #0 {
  call void @abort()
  ret void
}

; Function Attrs: noinline optnone uwtable
define weak dso_local void @_ZN10TextEditor14BaseTextEditor9duplicateEv() #0 {
  call void @abort()
  ret void
}

; Function Attrs: noinline optnone uwtable
define weak dso_local void @_ZN10TextEditor14BaseTextEditorC2Ev() #0 {
  call void @abort()
  ret void
}

; Function Attrs: noinline optnone uwtable
define weak dso_local void @_ZN10TextEditor14BaseTextEditorD0Ev() #0 {
  call void @abort()
  ret void
}

; Function Attrs: noinline optnone uwtable
define weak dso_local void @_ZN10TextEditor14BaseTextEditorD1Ev() #0 {
  call void @abort()
  ret void
}

; Function Attrs: noinline optnone uwtable
define weak dso_local void @_ZN10TextEditor14BaseTextEditorD2Ev() #0 {
  call void @abort()
  ret void
}

; Function Attrs: noinline optnone uwtable
define weak dso_local void @_ZN10TextEditor16FontSettingsPage11setFontZoomEi() #0 {
  call void @abort()
  ret void
}

; Function Attrs: noinline optnone uwtable
define weak dso_local void @_ZN10TextEditor16FontSettingsPageC1EPNS_12FontSettingsERKNSt3__16vectorINS_17FormatDescriptionENS3_9allocatorIS5_EEEE() #0 {
  call void @abort()
  ret void
}

; Function Attrs: noinline optnone uwtable
define weak dso_local void @_ZN10TextEditor16TextEditorWidget10autoFormatEv() #0 {
  call void @abort()
  ret void
}

; Function Attrs: noinline optnone uwtable
define weak dso_local void @_ZN10TextEditor16TextEditorWidget10autoIndentEv() #0 {
  call void @abort()
  ret void
}

; Function Attrs: noinline optnone uwtable
define weak dso_local void @_ZN10TextEditor16TextEditorWidget10copyLineUpEv() #0 {
  call void @abort()
  ret void
}

; Function Attrs: noinline optnone uwtable
define weak dso_local void @_ZN10TextEditor16TextEditorWidget10deleteLineEv() #0 {
  call void @abort()
  ret void
}

; Function Attrs: noinline optnone uwtable
define weak dso_local void @_ZN10TextEditor16TextEditorWidget10findLinkAtERK11QTextCursorONSt3__18functionIFvRKN5Utils4LinkEEEEbb() #0 {
  call void @abort()
  ret void
}

; Function Attrs: noinline optnone uwtable
define weak dso_local void @_ZN10TextEditor16TextEditorWidget10findUsagesEv() #0 {
  call void @abort()
  ret void
}

; Function Attrs: noinline optnone uwtable
define weak dso_local void @_ZN10TextEditor16TextEditorWidget10fromEditorEPKN4Core7IEditorE() #0 {
  call void @abort()
  ret void
}

; Function Attrs: noinline optnone uwtable
define weak dso_local void @_ZN10TextEditor16TextEditorWidget10leaveEventEP6QEvent() #0 {
  call void @abort()
  ret void
}

; Function Attrs: noinline optnone uwtable
define weak dso_local void @_ZN10TextEditor16TextEditorWidget10moveLineUpEv() #0 {
  call void @abort()
  ret void
}

; Function Attrs: noinline optnone uwtable
define weak dso_local void @_ZN10TextEditor16TextEditorWidget10paintEventEP11QPaintEvent() #0 {
  call void @abort()
  ret void
}

; Function Attrs: noinline optnone uwtable
define weak dso_local void @_ZN10TextEditor16TextEditorWidget10timerEventEP11QTimerEvent() #0 {
  call void @abort()
  ret void
}

; Function Attrs: noinline optnone uwtable
define weak dso_local void @_ZN10TextEditor16TextEditorWidget10viewLineUpEv() #0 {
  call void @abort()
  ret void
}

; Function Attrs: noinline optnone uwtable
define weak dso_local void @_ZN10TextEditor16TextEditorWidget10viewPageUpEv() #0 {
  call void @abort()
  ret void
}

; Function Attrs: noinline optnone uwtable
define weak dso_local void @_ZN10TextEditor16TextEditorWidget10wheelEventEP11QWheelEvent() #0 {
  call void @abort()
  ret void
}

; Function Attrs: noinline optnone uwtable
define weak dso_local void @_ZN10TextEditor16TextEditorWidget11aboutToOpenERK7QStringS3_() #0 {
  call void @abort()
  ret void
}

; Function Attrs: noinline optnone uwtable
define weak dso_local void @_ZN10TextEditor16TextEditorWidget11changeEventEP6QEvent() #0 {
  call void @abort()
  ret void
}

; Function Attrs: noinline optnone uwtable
define weak dso_local void @_ZN10TextEditor16TextEditorWidget11gotoLineEndEv() #0 {
  call void @abort()
  ret void
}

; Function Attrs: noinline optnone uwtable
define weak dso_local void @_ZN10TextEditor16TextEditorWidget11resizeEventEP12QResizeEvent() #0 {
  call void @abort()
  ret void
}

; Function Attrs: noinline optnone uwtable
define weak dso_local void @_ZN10TextEditor16TextEditorWidget11setReadOnlyEb() #0 {
  call void @abort()
  ret void
}

; Function Attrs: noinline optnone uwtable
define weak dso_local void @_ZN10TextEditor16TextEditorWidget12copyLineDownEv() #0 {
  call void @abort()
  ret void
}

; Function Attrs: noinline optnone uwtable
define weak dso_local void @_ZN10TextEditor16TextEditorWidget12focusInEventEP11QFocusEvent() #0 {
  call void @abort()
  ret void
}

; Function Attrs: noinline optnone uwtable
define weak dso_local void @_ZN10TextEditor16TextEditorWidget12gotoBlockEndEv() #0 {
  call void @abort()
  ret void
}

; Function Attrs: noinline optnone uwtable
define weak dso_local void @_ZN10TextEditor16TextEditorWidget12gotoNextLineEv() #0 {
  call void @abort()
  ret void
}

; Function Attrs: noinline optnone uwtable
define weak dso_local void @_ZN10TextEditor16TextEditorWidget12gotoNextWordEv() #0 {
  call void @abort()
  ret void
}

; Function Attrs: noinline optnone uwtable
define weak dso_local void @_ZN10TextEditor16TextEditorWidget12invokeAssistENS_10AssistKindEPNS_15IAssistProviderE() #0 {
  call void @abort()
  ret void
}

; Function Attrs: noinline optnone uwtable
define weak dso_local void @_ZN10TextEditor16TextEditorWidget12moveLineDownEv() #0 {
  call void @abort()
  ret void
}

; Function Attrs: noinline optnone uwtable
define weak dso_local void @_ZN10TextEditor16TextEditorWidget12restoreStateERK10QByteArray() #0 {
  call void @abort()
  ret void
}

; Function Attrs: noinline optnone uwtable
define weak dso_local void @_ZN10TextEditor16TextEditorWidget12setCodeStyleEPNS_21ICodeStylePreferencesE() #0 {
  call void @abort()
  ret void
}

; Function Attrs: noinline optnone uwtable
define weak dso_local void @_ZN10TextEditor16TextEditorWidget12viewLineDownEv() #0 {
  call void @abort()
  ret void
}

; Function Attrs: noinline optnone uwtable
define weak dso_local void @_ZN10TextEditor16TextEditorWidget12viewPageDownEv() #0 {
  call void @abort()
  ret void
}

; Function Attrs: noinline optnone uwtable
define weak dso_local void @_ZN10TextEditor16TextEditorWidget13circularPasteEv() #0 {
  call void @abort()
  ret void
}

; Function Attrs: noinline optnone uwtable
define weak dso_local void @_ZN10TextEditor16TextEditorWidget13focusOutEventEP11QFocusEvent() #0 {
  call void @abort()
  ret void
}

; Function Attrs: noinline optnone uwtable
define weak dso_local void @_ZN10TextEditor16TextEditorWidget13gotoLineStartEv() #0 {
  call void @abort()
  ret void
}

; Function Attrs: noinline optnone uwtable
define weak dso_local void @_ZN10TextEditor16TextEditorWidget13inSnippetModeEPb() #0 {
  call void @abort()
  ret void
}

; Function Attrs: noinline optnone uwtable
define weak dso_local void @_ZN10TextEditor16TextEditorWidget13keyPressEventEP9QKeyEvent() #0 {
  call void @abort()
  ret void
}

; Function Attrs: noinline optnone uwtable
define weak dso_local void @_ZN10TextEditor16TextEditorWidget13selectBlockUpEv() #0 {
  call void @abort()
  ret void
}

; Function Attrs: noinline optnone uwtable
define weak dso_local void @_ZN10TextEditor16TextEditorWidget13switchUtf8bomEv() #0 {
  call void @abort()
  ret void
}

; Function Attrs: noinline optnone uwtable
define weak dso_local void @_ZN10TextEditor16TextEditorWidget13viewportEventEP6QEvent() #0 {
  call void @abort()
  ret void
}

; Function Attrs: noinline optnone uwtable
define weak dso_local void @_ZN10TextEditor16TextEditorWidget14OtherSelectionE() #0 {
  call void @abort()
  ret void
}

; Function Attrs: noinline optnone uwtable
define weak dso_local void @_ZN10TextEditor16TextEditorWidget14dragEnterEventEP15QDragEnterEvent() #0 {
  call void @abort()
  ret void
}

; Function Attrs: noinline optnone uwtable
define weak dso_local void @_ZN10TextEditor16TextEditorWidget14encourageApplyEv() #0 {
  call void @abort()
  ret void
}

; Function Attrs: noinline optnone uwtable
define weak dso_local void @_ZN10TextEditor16TextEditorWidget14gotoBlockStartEv() #0 {
  call void @abort()
  ret void
}

; Function Attrs: noinline optnone uwtable
define weak dso_local void @_ZN10TextEditor16TextEditorWidget14mouseMoveEventEP11QMouseEvent() #0 {
  call void @abort()
  ret void
}

; Function Attrs: noinline optnone uwtable
define weak dso_local void @_ZN10TextEditor16TextEditorWidget14selectEncodingEv() #0 {
  call void @abort()
  ret void
}

; Function Attrs: noinline optnone uwtable
define weak dso_local void @_ZN10TextEditor16TextEditorWidget15cleanWhitespaceEv() #0 {
  call void @abort()
  ret void
}

; Function Attrs: noinline optnone uwtable
define weak dso_local void @_ZN10TextEditor16TextEditorWidget15deleteEndOfLineEv() #0 {
  call void @abort()
  ret void
}

; Function Attrs: noinline optnone uwtable
define weak dso_local void @_ZN10TextEditor16TextEditorWidget15deleteEndOfWordEv() #0 {
  call void @abort()
  ret void
}

; Function Attrs: noinline optnone uwtable
define weak dso_local void @_ZN10TextEditor16TextEditorWidget15doSetTextCursorERK11QTextCursor() #0 {
  call void @abort()
  ret void
}

; Function Attrs: noinline optnone uwtable
define weak dso_local void @_ZN10TextEditor16TextEditorWidget15gotoDocumentEndEv() #0 {
  call void @abort()
  ret void
}

; Function Attrs: noinline optnone uwtable
define weak dso_local void @_ZN10TextEditor16TextEditorWidget15insertLineAboveEv() #0 {
  call void @abort()
  ret void
}

; Function Attrs: noinline optnone uwtable
define weak dso_local void @_ZN10TextEditor16TextEditorWidget15insertLineBelowEv() #0 {
  call void @abort()
  ret void
}

; Function Attrs: noinline optnone uwtable
define weak dso_local void @_ZN10TextEditor16TextEditorWidget15keyReleaseEventEP9QKeyEvent() #0 {
  call void @abort()
  ret void
}

; Function Attrs: noinline optnone uwtable
define weak dso_local void @_ZN10TextEditor16TextEditorWidget15mousePressEventEP11QMouseEvent() #0 {
  call void @abort()
  ret void
}

; Function Attrs: noinline optnone uwtable
define weak dso_local void @_ZN10TextEditor16TextEditorWidget15msgTextTooLargeEy() #0 {
  call void @abort()
  ret void
}

; Function Attrs: noinline optnone uwtable
define weak dso_local void @_ZN10TextEditor16TextEditorWidget15optionalActionsEv() #0 {
  call void @abort()
  ret void
}

; Function Attrs: noinline optnone uwtable
define weak dso_local void @_ZN10TextEditor16TextEditorWidget15rewrapParagraphEv() #0 {
  call void @abort()
  ret void
}

; Function Attrs: noinline optnone uwtable
define weak dso_local void @_ZN10TextEditor16TextEditorWidget15selectBlockDownEv() #0 {
  call void @abort()
  ret void
}

; Function Attrs: noinline optnone uwtable
define weak dso_local void @_ZN10TextEditor16TextEditorWidget15showContextMenuEv() #0 {
  call void @abort()
  ret void
}

; Function Attrs: noinline optnone uwtable
define weak dso_local void @_ZN10TextEditor16TextEditorWidget16contextMenuEventEP17QContextMenuEvent() #0 {
  call void @abort()
  ret void
}

; Function Attrs: noinline optnone uwtable
define weak dso_local void @_ZN10TextEditor16TextEditorWidget16gotoPreviousLineEv() #0 {
  call void @abort()
  ret void
}

; Function Attrs: noinline optnone uwtable
define weak dso_local void @_ZN10TextEditor16TextEditorWidget16gotoPreviousWordEv() #0 {
  call void @abort()
  ret void
}

; Function Attrs: noinline optnone uwtable
define weak dso_local void @_ZN10TextEditor16TextEditorWidget16inputMethodEventEP17QInputMethodEvent() #0 {
  call void @abort()
  ret void
}

; Function Attrs: noinline optnone uwtable
define weak dso_local void @_ZN10TextEditor16TextEditorWidget16setAutoCompleterEPNS_13AutoCompleterE() #0 {
  call void @abort()
  ret void
}

; Function Attrs: noinline optnone uwtable
define weak dso_local void @_ZN10TextEditor16TextEditorWidget17applyFontSettingsEv() #0 {
  call void @abort()
  ret void
}

; Function Attrs: noinline optnone uwtable
define weak dso_local void @_ZN10TextEditor16TextEditorWidget17deleteStartOfLineEv() #0 {
  call void @abort()
  ret void
}

; Function Attrs: noinline optnone uwtable
define weak dso_local void @_ZN10TextEditor16TextEditorWidget17deleteStartOfWordEv() #0 {
  call void @abort()
  ret void
}

; Function Attrs: noinline optnone uwtable
define weak dso_local void @_ZN10TextEditor16TextEditorWidget17duplicateMimeDataEPK9QMimeData() #0 {
  call void @abort()
  ret void
}

; Function Attrs: noinline optnone uwtable
define weak dso_local void @_ZN10TextEditor16TextEditorWidget17gotoDocumentStartEv() #0 {
  call void @abort()
  ret void
}

; Function Attrs: noinline optnone uwtable
define weak dso_local void @_ZN10TextEditor16TextEditorWidget17gotoNextCharacterEv() #0 {
  call void @abort()
  ret void
}

; Function Attrs: noinline optnone uwtable
define weak dso_local void @_ZN10TextEditor16TextEditorWidget17insertCodeSnippetERK11QTextCursorRK7QString() #0 {
  call void @abort()
  ret void
}

; Function Attrs: noinline optnone uwtable
define weak dso_local void @_ZN10TextEditor16TextEditorWidget17mouseReleaseEventEP11QMouseEvent() #0 {
  call void @abort()
  ret void
}

; Function Attrs: noinline optnone uwtable
define weak dso_local void @_ZN10TextEditor16TextEditorWidget17setBlockSelectionEb() #0 {
  call void @abort()
  ret void
}

; Function Attrs: noinline optnone uwtable
define weak dso_local void @_ZN10TextEditor16TextEditorWidget17setCursorPositionEi() #0 {
  call void @abort()
  ret void
}

; Function Attrs: noinline optnone uwtable
define weak dso_local void @_ZN10TextEditor16TextEditorWidget17setMarginSettingsERKNS_14MarginSettingsE() #0 {
  call void @abort()
  ret void
}

; Function Attrs: noinline optnone uwtable
define weak dso_local void @_ZN10TextEditor16TextEditorWidget17setTypingSettingsERKNS_14TypingSettingsE() #0 {
  call void @abort()
  ret void
}

; Function Attrs: noinline optnone uwtable
define weak dso_local void @_ZN10TextEditor16TextEditorWidget17sortSelectedLinesEv() #0 {
  call void @abort()
  ret void
}

; Function Attrs: noinline optnone uwtable
define weak dso_local void @_ZN10TextEditor16TextEditorWidget18convertToPlainTextERK7QString() #0 {
  call void @abort()
  ret void
}

; Function Attrs: noinline optnone uwtable
define weak dso_local void @_ZN10TextEditor16TextEditorWidget18duplicateSelectionEv() #0 {
  call void @abort()
  ret void
}

; Function Attrs: noinline optnone uwtable
define weak dso_local void @_ZN10TextEditor16TextEditorWidget18insertFromMimeDataEPK9QMimeData() #0 {
  call void @abort()
  ret void
}

; Function Attrs: noinline optnone uwtable
define weak dso_local void @_ZN10TextEditor16TextEditorWidget18lowercaseSelectionEv() #0 {
  call void @abort()
  ret void
}

; Function Attrs: noinline optnone uwtable
define weak dso_local void @_ZN10TextEditor16TextEditorWidget18pasteWithoutFormatEv() #0 {
  call void @abort()
  ret void
}

; Function Attrs: noinline optnone uwtable
define weak dso_local void @_ZN10TextEditor16TextEditorWidget18setContextHelpItemERKN4Core8HelpItemE() #0 {
  call void @abort()
  ret void
}

; Function Attrs: noinline optnone uwtable
define weak dso_local void @_ZN10TextEditor16TextEditorWidget18setDisplaySettingsERKNS_15DisplaySettingsE() #0 {
  call void @abort()
  ret void
}

; Function Attrs: noinline optnone uwtable
define weak dso_local void @_ZN10TextEditor16TextEditorWidget18setExtraSelectionsEN5Utils2IdERK5QListIN9QTextEdit14ExtraSelectionEE() #0 {
  call void @abort()
  ret void
}

; Function Attrs: noinline optnone uwtable
define weak dso_local void @_ZN10TextEditor16TextEditorWidget18setRefactorMarkersERK5QListINS_14RefactorMarkerEE() #0 {
  call void @abort()
  ret void
}

; Function Attrs: noinline optnone uwtable
define weak dso_local void @_ZN10TextEditor16TextEditorWidget18setStorageSettingsERKNS_15StorageSettingsE() #0 {
  call void @abort()
  ret void
}

; Function Attrs: noinline optnone uwtable
define weak dso_local void @_ZN10TextEditor16TextEditorWidget18unCommentSelectionEv() #0 {
  call void @abort()
  ret void
}

; Function Attrs: noinline optnone uwtable
define weak dso_local void @_ZN10TextEditor16TextEditorWidget18uppercaseSelectionEv() #0 {
  call void @abort()
  ret void
}

; Function Attrs: noinline optnone uwtable
define weak dso_local void @_ZN10TextEditor16TextEditorWidget19extraAreaLeaveEventEP6QEvent() #0 {
  call void @abort()
  ret void
}

; Function Attrs: noinline optnone uwtable
define weak dso_local void @_ZN10TextEditor16TextEditorWidget19extraAreaMouseEventEP11QMouseEvent() #0 {
  call void @abort()
  ret void
}

; Function Attrs: noinline optnone uwtable
define weak dso_local void @_ZN10TextEditor16TextEditorWidget19extraAreaPaintEventEP11QPaintEvent() #0 {
  call void @abort()
  ret void
}

; Function Attrs: noinline optnone uwtable
define weak dso_local void @_ZN10TextEditor16TextEditorWidget19openLinkUnderCursorEv() #0 {
  call void @abort()
  ret void
}

; Function Attrs: noinline optnone uwtable
define weak dso_local void @_ZN10TextEditor16TextEditorWidget19setBehaviorSettingsERKNS_16BehaviorSettingsE() #0 {
  call void @abort()
  ret void
}

; Function Attrs: noinline optnone uwtable
define weak dso_local void @_ZN10TextEditor16TextEditorWidget19setIfdefedOutBlocksERK5QListINS_10BlockRangeEE() #0 {
  call void @abort()
  ret void
}

; Function Attrs: noinline optnone uwtable
define weak dso_local void @_ZN10TextEditor16TextEditorWidget19setRevisionsVisibleEb() #0 {
  call void @abort()
  ret void
}

; Function Attrs: noinline optnone uwtable
define weak dso_local void @_ZN10TextEditor16TextEditorWidget19setupFallBackEditorEN5Utils2IdE() #0 {
  call void @abort()
  ret void
}

; Function Attrs: noinline optnone uwtable
define weak dso_local void @_ZN10TextEditor16TextEditorWidget21CodeWarningsSelectionE() #0 {
  call void @abort()
  ret void
}

; Function Attrs: noinline optnone uwtable
define weak dso_local void @_ZN10TextEditor16TextEditorWidget21UnusedSymbolSelectionE() #0 {
  call void @abort()
  ret void
}

; Function Attrs: noinline optnone uwtable
define weak dso_local void @_ZN10TextEditor16TextEditorWidget21gotoNextWordCamelCaseEv() #0 {
  call void @abort()
  ret void
}

; Function Attrs: noinline optnone uwtable
define weak dso_local void @_ZN10TextEditor16TextEditorWidget21gotoPreviousCharacterEv() #0 {
  call void @abort()
  ret void
}

; Function Attrs: noinline optnone uwtable
define weak dso_local void @_ZN10TextEditor16TextEditorWidget21mouseDoubleClickEventEP11QMouseEvent() #0 {
  call void @abort()
  ret void
}

; Function Attrs: noinline optnone uwtable
define weak dso_local void @_ZN10TextEditor16TextEditorWidget21selectWordUnderCursorEv() #0 {
  call void @abort()
  ret void
}

; Function Attrs: noinline optnone uwtable
define weak dso_local void @_ZN10TextEditor16TextEditorWidget21setLanguageSettingsIdEN5Utils2IdE() #0 {
  call void @abort()
  ret void
}

; Function Attrs: noinline optnone uwtable
define weak dso_local void @_ZN10TextEditor16TextEditorWidget21setLineNumbersVisibleEb() #0 {
  call void @abort()
  ret void
}

; Function Attrs: noinline optnone uwtable
define weak dso_local void @_ZN10TextEditor16TextEditorWidget21setRequestMarkEnabledEb() #0 {
  call void @abort()
  ret void
}

; Function Attrs: noinline optnone uwtable
define weak dso_local void @_ZN10TextEditor16TextEditorWidget21triggerPendingUpdatesEv() #0 {
  call void @abort()
  ret void
}

; Function Attrs: noinline optnone uwtable
define weak dso_local void @_ZN10TextEditor16TextEditorWidget22CodeSemanticsSelectionE() #0 {
  call void @abort()
  ret void
}

; Function Attrs: noinline optnone uwtable
define weak dso_local void @_ZN10TextEditor16TextEditorWidget23currentTextEditorWidgetEv() #0 {
  call void @abort()
  ret void
}

; Function Attrs: noinline optnone uwtable
define weak dso_local void @_ZN10TextEditor16TextEditorWidget23drawCollapsedBlockPopupER8QPainterRK10QTextBlock7QPointFRK5QRect() #0 {
  call void @abort()
  ret void
}

; Function Attrs: noinline optnone uwtable
define weak dso_local void @_ZN10TextEditor16TextEditorWidget23renameSymbolUnderCursorEv() #0 {
  call void @abort()
  ret void
}

; Function Attrs: noinline optnone uwtable
define weak dso_local void @_ZN10TextEditor16TextEditorWidget23setCodeFoldingSupportedEb() #0 {
  call void @abort()
  ret void
}

; Function Attrs: noinline optnone uwtable
define weak dso_local void @_ZN10TextEditor16TextEditorWidget23setHighlightCurrentLineEb() #0 {
  call void @abort()
  ret void
}

; Function Attrs: noinline optnone uwtable
define weak dso_local void @_ZN10TextEditor16TextEditorWidget24deleteEndOfWordCamelCaseEv() #0 {
  call void @abort()
  ret void
}

; Function Attrs: noinline optnone uwtable
define weak dso_local void @_ZN10TextEditor16TextEditorWidget24gotoLineEndWithSelectionEv() #0 {
  call void @abort()
  ret void
}

; Function Attrs: noinline optnone uwtable
define weak dso_local void @_ZN10TextEditor16TextEditorWidget24insertExtraToolBarWidgetENS0_4SideEP7QWidget() #0 {
  call void @abort()
  ret void
}

; Function Attrs: noinline optnone uwtable
define weak dso_local void @_ZN10TextEditor16TextEditorWidget24openFinishedSuccessfullyEv() #0 {
  call void @abort()
  ret void
}

; Function Attrs: noinline optnone uwtable
define weak dso_local void @_ZN10TextEditor16TextEditorWidget24setExtraEncodingSettingsERKNS_21ExtraEncodingSettingsE() #0 {
  call void @abort()
  ret void
}

; Function Attrs: noinline optnone uwtable
define weak dso_local void @_ZN10TextEditor16TextEditorWidget25extraAreaContextMenuEventEP17QContextMenuEvent() #0 {
  call void @abort()
  ret void
}

; Function Attrs: noinline optnone uwtable
define weak dso_local void @_ZN10TextEditor16TextEditorWidget25gotoBlockEndWithSelectionEv() #0 {
  call void @abort()
  ret void
}

; Function Attrs: noinline optnone uwtable
define weak dso_local void @_ZN10TextEditor16TextEditorWidget25gotoNextLineWithSelectionEv() #0 {
  call void @abort()
  ret void
}

; Function Attrs: noinline optnone uwtable
define weak dso_local void @_ZN10TextEditor16TextEditorWidget25gotoNextWordWithSelectionEv() #0 {
  call void @abort()
  ret void
}

; Function Attrs: noinline optnone uwtable
define weak dso_local void @_ZN10TextEditor16TextEditorWidget25gotoPreviousWordCamelCaseEv() #0 {
  call void @abort()
  ret void
}

; Function Attrs: noinline optnone uwtable
define weak dso_local void @_ZN10TextEditor16TextEditorWidget25slotCursorPositionChangedEv() #0 {
  call void @abort()
  ret void
}

; Function Attrs: noinline optnone uwtable
define weak dso_local void @_ZN10TextEditor16TextEditorWidget26deleteStartOfWordCamelCaseEv() #0 {
  call void @abort()
  ret void
}

; Function Attrs: noinline optnone uwtable
define weak dso_local void @_ZN10TextEditor16TextEditorWidget26gotoLineStartWithSelectionEv() #0 {
  call void @abort()
  ret void
}

; Function Attrs: noinline optnone uwtable
define weak dso_local void @_ZN10TextEditor16TextEditorWidget27configureGenericHighlighterEv() #0 {
  call void @abort()
  ret void
}

; Function Attrs: noinline optnone uwtable
define weak dso_local void @_ZN10TextEditor16TextEditorWidget27gotoBlockStartWithSelectionEv() #0 {
  call void @abort()
  ret void
}

; Function Attrs: noinline optnone uwtable
define weak dso_local void @_ZN10TextEditor16TextEditorWidget27keepAutoCompletionHighlightEb() #0 {
  call void @abort()
  ret void
}

; Function Attrs: noinline optnone uwtable
define weak dso_local void @_ZN10TextEditor16TextEditorWidget27setAutoCompleteSkipPositionERK11QTextCursor() #0 {
  call void @abort()
  ret void
}

; Function Attrs: noinline optnone uwtable
define weak dso_local void @_ZN10TextEditor16TextEditorWidget28duplicateSelectionAndCommentEv() #0 {
  call void @abort()
  ret void
}

; Function Attrs: noinline optnone uwtable
define weak dso_local void @_ZN10TextEditor16TextEditorWidget28slotCodeStyleSettingsChangedERK8QVariant() #0 {
  call void @abort()
  ret void
}

; Function Attrs: noinline optnone uwtable
define weak dso_local void @_ZN10TextEditor16TextEditorWidget29gotoPreviousLineWithSelectionEv() #0 {
  call void @abort()
  ret void
}

; Function Attrs: noinline optnone uwtable
define weak dso_local void @_ZN10TextEditor16TextEditorWidget29gotoPreviousWordWithSelectionEv() #0 {
  call void @abort()
  ret void
}

; Function Attrs: noinline optnone uwtable
define weak dso_local void @_ZN10TextEditor16TextEditorWidget29setParenthesesMatchingEnabledEb() #0 {
  call void @abort()
  ret void
}

; Function Attrs: noinline optnone uwtable
define weak dso_local void @_ZN10TextEditor16TextEditorWidget30gotoNextCharacterWithSelectionEv() #0 {
  call void @abort()
  ret void
}

; Function Attrs: noinline optnone uwtable
define weak dso_local void @_ZN10TextEditor16TextEditorWidget30openLinkUnderCursorInNextSplitEv() #0 {
  call void @abort()
  ret void
}

; Function Attrs: noinline optnone uwtable
define weak dso_local void @_ZN10TextEditor16TextEditorWidget32appendStandardContextMenuActionsEP5QMenu() #0 {
  call void @abort()
  ret void
}

; Function Attrs: noinline optnone uwtable
define weak dso_local void @_ZN10TextEditor16TextEditorWidget34gotoNextWordCamelCaseWithSelectionEv() #0 {
  call void @abort()
  ret void
}

; Function Attrs: noinline optnone uwtable
define weak dso_local void @_ZN10TextEditor16TextEditorWidget34gotoPreviousCharacterWithSelectionEv() #0 {
  call void @abort()
  ret void
}

; Function Attrs: noinline optnone uwtable
define weak dso_local void @_ZN10TextEditor16TextEditorWidget38gotoPreviousWordCamelCaseWithSelectionEv() #0 {
  call void @abort()
  ret void
}

; Function Attrs: noinline optnone uwtable
define weak dso_local void @_ZN10TextEditor16TextEditorWidget3cutEv() #0 {
  call void @abort()
  ret void
}

; Function Attrs: noinline optnone uwtable
define weak dso_local void @_ZN10TextEditor16TextEditorWidget4copyEv() #0 {
  call void @abort()
  ret void
}

; Function Attrs: noinline optnone uwtable
define weak dso_local void @_ZN10TextEditor16TextEditorWidget4foldEv() #0 {
  call void @abort()
  ret void
}

; Function Attrs: noinline optnone uwtable
define weak dso_local void @_ZN10TextEditor16TextEditorWidget4redoEv() #0 {
  call void @abort()
  ret void
}

; Function Attrs: noinline optnone uwtable
define weak dso_local void @_ZN10TextEditor16TextEditorWidget4undoEv() #0 {
  call void @abort()
  ret void
}

; Function Attrs: noinline optnone uwtable
define weak dso_local void @_ZN10TextEditor16TextEditorWidget5eventEP6QEvent() #0 {
  call void @abort()
  ret void
}

; Function Attrs: noinline optnone uwtable
define weak dso_local void @_ZN10TextEditor16TextEditorWidget5pasteEv() #0 {
  call void @abort()
  ret void
}

; Function Attrs: noinline optnone uwtable
define weak dso_local void @_ZN10TextEditor16TextEditorWidget5printEP8QPrinter() #0 {
  call void @abort()
  ret void
}

; Function Attrs: noinline optnone uwtable
define weak dso_local void @_ZN10TextEditor16TextEditorWidget5zoomFEf() #0 {
  call void @abort()
  ret void
}

; Function Attrs: noinline optnone uwtable
define weak dso_local void @_ZN10TextEditor16TextEditorWidget6indentEv() #0 {
  call void @abort()
  ret void
}

; Function Attrs: noinline optnone uwtable
define weak dso_local void @_ZN10TextEditor16TextEditorWidget6unfoldEv() #0 {
  call void @abort()
  ret void
}

; Function Attrs: noinline optnone uwtable
define weak dso_local void @_ZN10TextEditor16TextEditorWidget7cutLineEv() #0 {
  call void @abort()
  ret void
}

; Function Attrs: noinline optnone uwtable
define weak dso_local void @_ZN10TextEditor16TextEditorWidget7replaceEiRK7QString() #0 {
  call void @abort()
  ret void
}

; Function Attrs: noinline optnone uwtable
define weak dso_local void @_ZN10TextEditor16TextEditorWidget7toolBarEv() #0 {
  call void @abort()
  ret void
}

; Function Attrs: noinline optnone uwtable
define weak dso_local void @_ZN10TextEditor16TextEditorWidget8copyLineEv() #0 {
  call void @abort()
  ret void
}

; Function Attrs: noinline optnone uwtable
define weak dso_local void @_ZN10TextEditor16TextEditorWidget8gotoLineEiibb() #0 {
  call void @abort()
  ret void
}

; Function Attrs: noinline optnone uwtable
define weak dso_local void @_ZN10TextEditor16TextEditorWidget8openLinkERKN5Utils4LinkEb() #0 {
  call void @abort()
  ret void
}

; Function Attrs: noinline optnone uwtable
define weak dso_local void @_ZN10TextEditor16TextEditorWidget8unindentEv() #0 {
  call void @abort()
  ret void
}

; Function Attrs: noinline optnone uwtable
define weak dso_local void @_ZN10TextEditor16TextEditorWidget9dropEventEP10QDropEvent() #0 {
  call void @abort()
  ret void
}

; Function Attrs: noinline optnone uwtable
define weak dso_local void @_ZN10TextEditor16TextEditorWidget9joinLinesEv() #0 {
  call void @abort()
  ret void
}

; Function Attrs: noinline optnone uwtable
define weak dso_local void @_ZN10TextEditor16TextEditorWidget9selectAllEv() #0 {
  call void @abort()
  ret void
}

; Function Attrs: noinline optnone uwtable
define weak dso_local void @_ZN10TextEditor16TextEditorWidget9showEventEP10QShowEvent() #0 {
  call void @abort()
  ret void
}

; Function Attrs: noinline optnone uwtable
define weak dso_local void @_ZN10TextEditor16TextEditorWidget9unfoldAllEv() #0 {
  call void @abort()
  ret void
}

; Function Attrs: noinline optnone uwtable
define weak dso_local void @_ZN10TextEditor16TextEditorWidget9zoomResetEv() #0 {
  call void @abort()
  ret void
}

; Function Attrs: noinline optnone uwtable
define weak dso_local void @_ZN10TextEditor16TextEditorWidgetC2EP7QWidget() #0 {
  call void @abort()
  ret void
}

; Function Attrs: noinline optnone uwtable
define weak dso_local void @_ZN10TextEditor16TextEditorWidgetD0Ev() #0 {
  call void @abort()
  ret void
}

; Function Attrs: noinline optnone uwtable
define weak dso_local void @_ZN10TextEditor16TextEditorWidgetD1Ev() #0 {
  call void @abort()
  ret void
}

; Function Attrs: noinline optnone uwtable
define weak dso_local void @_ZN10TextEditor16TextEditorWidgetD2Ev() #0 {
  call void @abort()
  ret void
}

; Function Attrs: noinline optnone uwtable
define weak dso_local void @_ZN10TextEditor17FormatDescriptionC1ENS_9TextStyleERK7QStringS4_NS0_12ShowControlsE() #0 {
  call void @abort()
  ret void
}

; Function Attrs: noinline optnone uwtable
define weak dso_local void @_ZN10TextEditor17FormatDescriptionC1ENS_9TextStyleERK7QStringS4_RK6QColorN15QTextCharFormat14UnderlineStyleENS0_12ShowControlsE() #0 {
  call void @abort()
  ret void
}

; Function Attrs: noinline optnone uwtable
define weak dso_local void @_ZN10TextEditor17FormatDescriptionC1ENS_9TextStyleERK7QStringS4_RK6QColorNS0_12ShowControlsE() #0 {
  call void @abort()
  ret void
}

; Function Attrs: noinline optnone uwtable
define weak dso_local void @_ZN10TextEditor17FormatDescriptionC1ENS_9TextStyleERK7QStringS4_RKNS_6FormatENS0_12ShowControlsE() #0 {
  call void @abort()
  ret void
}

; Function Attrs: noinline optnone uwtable
define weak dso_local void @_ZN10TextEditor17TabSettingsWidget14setTabSettingsERKNS_11TabSettingsE() #0 {
  call void @abort()
  ret void
}

; Function Attrs: noinline optnone uwtable
define weak dso_local void @_ZN10TextEditor17TabSettingsWidgetC1EP7QWidget() #0 {
  call void @abort()
  ret void
}

; Function Attrs: noinline optnone uwtable
define weak dso_local void @_ZN10TextEditor17TabSettingsWidgetD0Ev() #0 {
  call void @abort()
  ret void
}

; Function Attrs: noinline optnone uwtable
define weak dso_local void @_ZN10TextEditor17TabSettingsWidgetD1Ev() #0 {
  call void @abort()
  ret void
}

; Function Attrs: noinline optnone uwtable
define weak dso_local void @_ZN10TextEditor17TextEditorFactory15addHoverHandlerEPNS_16BaseHoverHandlerE() #0 {
  call void @abort()
  ret void
}

; Function Attrs: noinline optnone uwtable
define weak dso_local void @_ZN10TextEditor17TextEditorFactory15setMarksVisibleEb() #0 {
  call void @abort()
  ret void
}

; Function Attrs: noinline optnone uwtable
define weak dso_local void @_ZN10TextEditor17TextEditorFactory16setEditorCreatorERKNSt3__18functionIFPNS_14BaseTextEditorEvEEE() #0 {
  call void @abort()
  ret void
}

; Function Attrs: noinline optnone uwtable
define weak dso_local void @_ZN10TextEditor17TextEditorFactory18setDocumentCreatorERKNSt3__18functionIFPNS_12TextDocumentEvEEE() #0 {
  call void @abort()
  ret void
}

; Function Attrs: noinline optnone uwtable
define weak dso_local void @_ZN10TextEditor17TextEditorFactory20setCommentDefinitionEN5Utils17CommentDefinitionE() #0 {
  call void @abort()
  ret void
}

; Function Attrs: noinline optnone uwtable
define weak dso_local void @_ZN10TextEditor17TextEditorFactory22setDuplicatedSupportedEb() #0 {
  call void @abort()
  ret void
}

; Function Attrs: noinline optnone uwtable
define weak dso_local void @_ZN10TextEditor17TextEditorFactory22setEditorWidgetCreatorERKNSt3__18functionIFP7QWidgetvEEE() #0 {
  call void @abort()
  ret void
}

; Function Attrs: noinline optnone uwtable
define weak dso_local void @_ZN10TextEditor17TextEditorFactory23setAutoCompleterCreatorERKNSt3__18functionIFPNS_13AutoCompleterEvEEE() #0 {
  call void @abort()
  ret void
}

; Function Attrs: noinline optnone uwtable
define weak dso_local void @_ZN10TextEditor17TextEditorFactory23setCodeFoldingSupportedEb() #0 {
  call void @abort()
  ret void
}

; Function Attrs: noinline optnone uwtable
define weak dso_local void @_ZN10TextEditor17TextEditorFactory23setEditorActionHandlersEj() #0 {
  call void @abort()
  ret void
}

; Function Attrs: noinline optnone uwtable
define weak dso_local void @_ZN10TextEditor17TextEditorFactory24setUseGenericHighlighterEb() #0 {
  call void @abort()
  ret void
}

; Function Attrs: noinline optnone uwtable
define weak dso_local void @_ZN10TextEditor17TextEditorFactory27setCompletionAssistProviderEPNS_24CompletionAssistProviderE() #0 {
  call void @abort()
  ret void
}

; Function Attrs: noinline optnone uwtable
define weak dso_local void @_ZN10TextEditor17TextEditorFactory29setParenthesesMatchingEnabledEb() #0 {
  call void @abort()
  ret void
}

; Function Attrs: noinline optnone uwtable
define weak dso_local void @_ZN10TextEditor17TextEditorFactoryC2Ev() #0 {
  call void @abort()
  ret void
}

; Function Attrs: noinline optnone uwtable
define weak dso_local void @_ZN10TextEditor17TextEditorFactoryD2Ev() #0 {
  call void @abort()
  ret void
}

; Function Attrs: noinline optnone uwtable
define weak dso_local void @_ZN10TextEditor19DisplaySettingsPageC1Ev() #0 {
  call void @abort()
  ret void
}

; Function Attrs: noinline optnone uwtable
define weak dso_local void @_ZN10TextEditor19DisplaySettingsPageD1Ev() #0 {
  call void @abort()
  ret void
}

; Function Attrs: noinline optnone uwtable
define weak dso_local void @_ZN10TextEditor19TextEditorLinkLabel7setLinkEN5Utils4LinkE() #0 {
  call void @abort()
  ret void
}

; Function Attrs: noinline optnone uwtable
define weak dso_local void @_ZN10TextEditor19TextEditorLinkLabelC1EP7QWidget() #0 {
  call void @abort()
  ret void
}

; Function Attrs: noinline optnone uwtable
define weak dso_local void @_ZN10TextEditor20BehaviorSettingsPage5applyEv() #0 {
  call void @abort()
  ret void
}

; Function Attrs: noinline optnone uwtable
define weak dso_local void @_ZN10TextEditor20BehaviorSettingsPage6finishEv() #0 {
  call void @abort()
  ret void
}

; Function Attrs: noinline optnone uwtable
define weak dso_local void @_ZN10TextEditor20BehaviorSettingsPage6widgetEv() #0 {
  call void @abort()
  ret void
}

; Function Attrs: noinline optnone uwtable
define weak dso_local void @_ZN10TextEditor20BehaviorSettingsPageC1Ev() #0 {
  call void @abort()
  ret void
}

; Function Attrs: noinline optnone uwtable
define weak dso_local void @_ZN10TextEditor20BehaviorSettingsPageD0Ev() #0 {
  call void @abort()
  ret void
}

; Function Attrs: noinline optnone uwtable
define weak dso_local void @_ZN10TextEditor20BehaviorSettingsPageD1Ev() #0 {
  call void @abort()
  ret void
}

; Function Attrs: noinline optnone uwtable
define weak dso_local void @_ZN10TextEditor22BehaviorSettingsWidgetD0Ev() #0 {
  call void @abort()
  ret void
}

; Function Attrs: noinline optnone uwtable
define weak dso_local void @_ZN10TextEditor22BehaviorSettingsWidgetD1Ev() #0 {
  call void @abort()
  ret void
}

; Function Attrs: noinline optnone uwtable
define weak dso_local void @_ZN10TextEditor23CodeStyleSelectorWidget12setCodeStyleEPNS_21ICodeStylePreferencesE() #0 {
  call void @abort()
  ret void
}

; Function Attrs: noinline optnone uwtable
define weak dso_local void @_ZN10TextEditor23CodeStyleSelectorWidgetC1EPNS_28ICodeStylePreferencesFactoryEP7QWidget() #0 {
  call void @abort()
  ret void
}

; Function Attrs: noinline optnone uwtable
define weak dso_local void @_ZN10TextEditor23CodeStyleSelectorWidgetD0Ev() #0 {
  call void @abort()
  ret void
}

; Function Attrs: noinline optnone uwtable
define weak dso_local void @_ZN10TextEditor23CodeStyleSelectorWidgetD1Ev() #0 {
  call void @abort()
  ret void
}

; Function Attrs: noinline optnone uwtable
define weak dso_local void @_ZN10TextEditor23HighlighterSettingsPageC1Ev() #0 {
  call void @abort()
  ret void
}

; Function Attrs: noinline optnone uwtable
define weak dso_local void @_ZN10TextEditor23HighlighterSettingsPageD1Ev() #0 {
  call void @abort()
  ret void
}

; Function Attrs: noinline optnone uwtable
define weak dso_local void @_ZN10TextEditor8Internal15ColorSchemeEditD0Ev() #0 {
  call void @abort()
  ret void
}

; Function Attrs: noinline optnone uwtable
define weak dso_local void @_ZN10TextEditor8Internal15ColorSchemeEditD1Ev() #0 {
  call void @abort()
  ret void
}

; Function Attrs: noinline optnone uwtable
define weak dso_local void @_ZN10TextEditor8Internal20SnippetsSettingsPageC1Ev() #0 {
  call void @abort()
  ret void
}

; Function Attrs: noinline optnone uwtable
define weak dso_local void @_ZN10TextEditor8Internal20SnippetsSettingsPageD1Ev() #0 {
  call void @abort()
  ret void
}

; Function Attrs: noinline optnone uwtable
define weak dso_local void @_ZN10TextEditor8Internal22CompletionSettingsPage16commentsSettingsEv() #0 {
  call void @abort()
  ret void
}

; Function Attrs: noinline optnone uwtable
define weak dso_local void @_ZN10TextEditor8Internal22CompletionSettingsPage18completionSettingsEv() #0 {
  call void @abort()
  ret void
}

; Function Attrs: noinline optnone uwtable
define weak dso_local void @_ZN10TextEditor8Internal22CompletionSettingsPageC1Ev() #0 {
  call void @abort()
  ret void
}

; Function Attrs: noinline optnone uwtable
define weak dso_local void @_ZN11QMakeParser10initializeEv() #0 {
  call void @abort()
  ret void
}

; Function Attrs: noinline optnone uwtable
define weak dso_local void @_ZN11QMakeParserC2EP12ProFileCacheP8QMakeVfsP18QMakeParserHandler() #0 {
  call void @abort()
  ret void
}

; Function Attrs: noinline optnone uwtable
define weak dso_local void @_ZN11QmlJSEditor12QuickToolBar10setEnabledEb() #0 {
  call void @abort()
  ret void
}

; Function Attrs: noinline optnone uwtable
define weak dso_local void @_ZN11QmlJSEditor12QuickToolBar11isAvailableEPN10TextEditor16TextEditorWidgetE14QSharedPointerIKN5QmlJS8DocumentEEPNS5_3AST4NodeE() #0 {
  call void @abort()
  ret void
}

; Function Attrs: noinline optnone uwtable
define weak dso_local void @_ZN11QmlJSEditor12QuickToolBar5applyEPN10TextEditor16TextEditorWidgetE14QSharedPointerIKN5QmlJS8DocumentEEPKNS5_10ScopeChainEPNS5_3AST4NodeEbb() #0 {
  call void @abort()
  ret void
}

; Function Attrs: noinline optnone uwtable
define weak dso_local void @_ZN11QmlJSEditor12QuickToolBar6widgetEv() #0 {
  call void @abort()
  ret void
}

; Function Attrs: noinline optnone uwtable
define weak dso_local void @_ZN11QmlJSEditor12QuickToolBarD0Ev() #0 {
  call void @abort()
  ret void
}

; Function Attrs: noinline optnone uwtable
define weak dso_local void @_ZN11QmlJSEditor12QuickToolBarD1Ev() #0 {
  call void @abort()
  ret void
}

; Function Attrs: noinline optnone uwtable
define weak dso_local void @_ZN11QmlJSEditor8Internal17QmlJSEditorPlugin10initializeERK11QStringListP7QString() #0 {
  call void @abort()
  ret void
}

; Function Attrs: noinline optnone uwtable
define weak dso_local void @_ZN11QmlJSEditor8Internal17QmlJSEditorPlugin11jsonManagerEv() #0 {
  call void @abort()
  ret void
}

; Function Attrs: noinline optnone uwtable
define weak dso_local void @_ZN11QmlJSEditor8Internal17QmlJSEditorPlugin12quickToolBarEv() #0 {
  call void @abort()
  ret void
}

; Function Attrs: noinline optnone uwtable
define weak dso_local void @_ZN11QmlJSEditor8Internal17QmlJSEditorPlugin15aboutToShutdownEv() #0 {
  call void @abort()
  ret void
}

; Function Attrs: noinline optnone uwtable
define weak dso_local void @_ZN11QmlJSEditor8Internal17QmlJSEditorPlugin21extensionsInitializedEv() #0 {
  call void @abort()
  ret void
}

; Function Attrs: noinline optnone uwtable
define weak dso_local void @_ZN11QmlJSEditor8Internal17QmlJSEditorPlugin22quickFixAssistProviderEv() #0 {
  call void @abort()
  ret void
}

; Function Attrs: noinline optnone uwtable
define weak dso_local void @_ZN11QmlJSEditor8Internal17QmlJSEditorPluginC1Ev() #0 {
  call void @abort()
  ret void
}

; Function Attrs: noinline optnone uwtable
define weak dso_local void @_ZN11QmlJSEditor8Internal17QmlJSEditorPluginD0Ev() #0 {
  call void @abort()
  ret void
}

; Function Attrs: noinline optnone uwtable
define weak dso_local void @_ZN11QmlJSEditor8Internal17QmlJSEditorPluginD1Ev() #0 {
  call void @abort()
  ret void
}

; Function Attrs: noinline optnone uwtable
define weak dso_local void @_ZN11QmlJSEditor8Internal19ComponentNameDialog2goEP7QStringS3_S3_RK11QStringListS6_RKS2_PS4_P7QWidget() #0 {
  call void @abort()
  ret void
}

; Function Attrs: noinline optnone uwtable
define weak dso_local void @_ZN11QmlJSEditor8Internal19ComponentNameDialogD0Ev() #0 {
  call void @abort()
  ret void
}

; Function Attrs: noinline optnone uwtable
define weak dso_local void @_ZN11QmlJSEditor8Internal19ComponentNameDialogD1Ev() #0 {
  call void @abort()
  ret void
}

; Function Attrs: noinline optnone uwtable
define weak dso_local void @_ZN11QmlJSEditor8Internal8IndenterC1EP13QTextDocument() #0 {
  call void @abort()
  ret void
}

; Function Attrs: noinline optnone uwtable
define weak dso_local void @_ZN12ProFileCache11discardFileERK7QStringP8QMakeVfs() #0 {
  call void @abort()
  ret void
}

; Function Attrs: noinline optnone uwtable
define weak dso_local void @_ZN12ProFileCache12discardFilesERK7QStringP8QMakeVfs() #0 {
  call void @abort()
  ret void
}

; Function Attrs: noinline optnone uwtable
define weak dso_local void @_ZN12ProFileCacheC1Ev() #0 {
  call void @abort()
  ret void
}

; Function Attrs: noinline optnone uwtable
define weak dso_local void @_ZN12ProFileCacheD1Ev() #0 {
  call void @abort()
  ret void
}

; Function Attrs: noinline optnone uwtable
define weak dso_local void @_ZN13LanguageUtils12FakeMetaEnum6addKeyERK7QString() #0 {
  call void @abort()
  ret void
}

; Function Attrs: noinline optnone uwtable
define weak dso_local void @_ZN13LanguageUtils12FakeMetaEnum7setNameERK7QString() #0 {
  call void @abort()
  ret void
}

; Function Attrs: noinline optnone uwtable
define weak dso_local void @_ZN13LanguageUtils12FakeMetaEnumC1ERK7QString() #0 {
  call void @abort()
  ret void
}

; Function Attrs: noinline optnone uwtable
define weak dso_local void @_ZN13LanguageUtils12FakeMetaEnumC1Ev() #0 {
  call void @abort()
  ret void
}

; Function Attrs: noinline optnone uwtable
define weak dso_local void @_ZN13LanguageUtils14FakeMetaMethod11setRevisionEi() #0 {
  call void @abort()
  ret void
}

; Function Attrs: noinline optnone uwtable
define weak dso_local void @_ZN13LanguageUtils14FakeMetaMethod12addParameterERK7QStringS3_() #0 {
  call void @abort()
  ret void
}

; Function Attrs: noinline optnone uwtable
define weak dso_local void @_ZN13LanguageUtils14FakeMetaMethod13setMethodNameERK7QString() #0 {
  call void @abort()
  ret void
}

; Function Attrs: noinline optnone uwtable
define weak dso_local void @_ZN13LanguageUtils14FakeMetaMethod13setMethodTypeEi() #0 {
  call void @abort()
  ret void
}

; Function Attrs: noinline optnone uwtable
define weak dso_local void @_ZN13LanguageUtils14FakeMetaMethod13setReturnTypeERK7QString() #0 {
  call void @abort()
  ret void
}

; Function Attrs: noinline optnone uwtable
define weak dso_local void @_ZN13LanguageUtils14FakeMetaMethodC1ERK7QStringS3_() #0 {
  call void @abort()
  ret void
}

; Function Attrs: noinline optnone uwtable
define weak dso_local void @_ZN13LanguageUtils14FakeMetaMethodC1Ev() #0 {
  call void @abort()
  ret void
}

; Function Attrs: noinline optnone uwtable
define weak dso_local void @_ZN13LanguageUtils14FakeMetaObject11addPropertyERKNS_16FakeMetaPropertyE() #0 {
  call void @abort()
  ret void
}

; Function Attrs: noinline optnone uwtable
define weak dso_local void @_ZN13LanguageUtils14FakeMetaObject12setClassNameERK7QString() #0 {
  call void @abort()
  ret void
}

; Function Attrs: noinline optnone uwtable
define weak dso_local void @_ZN13LanguageUtils14FakeMetaObject14setIsCompositeEb() #0 {
  call void @abort()
  ret void
}

; Function Attrs: noinline optnone uwtable
define weak dso_local void @_ZN13LanguageUtils14FakeMetaObject14setIsCreatableEb() #0 {
  call void @abort()
  ret void
}

; Function Attrs: noinline optnone uwtable
define weak dso_local void @_ZN13LanguageUtils14FakeMetaObject14setIsSingletonEb() #0 {
  call void @abort()
  ret void
}

; Function Attrs: noinline optnone uwtable
define weak dso_local void @_ZN13LanguageUtils14FakeMetaObject17setSuperclassNameERK7QString() #0 {
  call void @abort()
  ret void
}

; Function Attrs: noinline optnone uwtable
define weak dso_local void @_ZN13LanguageUtils14FakeMetaObject17updateFingerprintEv() #0 {
  call void @abort()
  ret void
}

; Function Attrs: noinline optnone uwtable
define weak dso_local void @_ZN13LanguageUtils14FakeMetaObject19setAttachedTypeNameERK7QString() #0 {
  call void @abort()
  ret void
}

; Function Attrs: noinline optnone uwtable
define weak dso_local void @_ZN13LanguageUtils14FakeMetaObject22setDefaultPropertyNameERK7QString() #0 {
  call void @abort()
  ret void
}

; Function Attrs: noinline optnone uwtable
define weak dso_local void @_ZN13LanguageUtils14FakeMetaObject27setExportMetaObjectRevisionEii() #0 {
  call void @abort()
  ret void
}

; Function Attrs: noinline optnone uwtable
define weak dso_local void @_ZN13LanguageUtils14FakeMetaObject6ExportC1Ev() #0 {
  call void @abort()
  ret void
}

; Function Attrs: noinline optnone uwtable
define weak dso_local void @_ZN13LanguageUtils14FakeMetaObject7addEnumERKNS_12FakeMetaEnumE() #0 {
  call void @abort()
  ret void
}

; Function Attrs: noinline optnone uwtable
define weak dso_local void @_ZN13LanguageUtils14FakeMetaObject9addExportERK7QStringS3_NS_16ComponentVersionE() #0 {
  call void @abort()
  ret void
}

; Function Attrs: noinline optnone uwtable
define weak dso_local void @_ZN13LanguageUtils14FakeMetaObject9addMethodERKNS_14FakeMetaMethodE() #0 {
  call void @abort()
  ret void
}

; Function Attrs: noinline optnone uwtable
define weak dso_local void @_ZN13LanguageUtils14FakeMetaObjectC1Ev() #0 {
  call void @abort()
  ret void
}

; Function Attrs: noinline optnone uwtable
define weak dso_local void @_ZN13LanguageUtils16ComponentVersion10MaxVersionE() #0 {
  call void @abort()
  ret void
}

; Function Attrs: noinline optnone uwtable
define weak dso_local void @_ZN13LanguageUtils16ComponentVersion9NoVersionE() #0 {
  call void @abort()
  ret void
}

; Function Attrs: noinline optnone uwtable
define weak dso_local void @_ZN13LanguageUtils16ComponentVersionC1ERK7QString() #0 {
  call void @abort()
  ret void
}

; Function Attrs: noinline optnone uwtable
define weak dso_local void @_ZN13LanguageUtils16ComponentVersionC1Eii() #0 {
  call void @abort()
  ret void
}

; Function Attrs: noinline optnone uwtable
define weak dso_local void @_ZN13LanguageUtils16ComponentVersionC1Ev() #0 {
  call void @abort()
  ret void
}

; Function Attrs: noinline optnone uwtable
define weak dso_local void @_ZN13LanguageUtils16ComponentVersionD1Ev() #0 {
  call void @abort()
  ret void
}

; Function Attrs: noinline optnone uwtable
define weak dso_local void @_ZN13LanguageUtils16FakeMetaPropertyC1ERK7QStringS3_bbbi() #0 {
  call void @abort()
  ret void
}

; Function Attrs: noinline optnone uwtable
define weak dso_local void @_ZN13LanguageUtilseqERKNS_16ComponentVersionES2_() #0 {
  call void @abort()
  ret void
}

; Function Attrs: noinline optnone uwtable
define weak dso_local void @_ZN13LanguageUtilsgtERKNS_16ComponentVersionES2_() #0 {
  call void @abort()
  ret void
}

; Function Attrs: noinline optnone uwtable
define weak dso_local void @_ZN13LanguageUtilsleERKNS_16ComponentVersionES2_() #0 {
  call void @abort()
  ret void
}

; Function Attrs: noinline optnone uwtable
define weak dso_local void @_ZN13LanguageUtilsltERKNS_16ComponentVersionES2_() #0 {
  call void @abort()
  ret void
}

; Function Attrs: noinline optnone uwtable
define weak dso_local void @_ZN15ExtensionSystem15PluginErrorView6updateEPNS_10PluginSpecE() #0 {
  call void @abort()
  ret void
}

; Function Attrs: noinline optnone uwtable
define weak dso_local void @_ZN15ExtensionSystem15PluginErrorViewC1EP7QWidget() #0 {
  call void @abort()
  ret void
}

; Function Attrs: noinline optnone uwtable
define weak dso_local void @_ZN15ExtensionSystem15PluginErrorViewD0Ev() #0 {
  call void @abort()
  ret void
}

; Function Attrs: noinline optnone uwtable
define weak dso_local void @_ZN15ExtensionSystem15PluginErrorViewD1Ev() #0 {
  call void @abort()
  ret void
}

; Function Attrs: noinline optnone uwtable
define weak dso_local void @_ZN15ExtensionSystem17PluginDetailsView6updateEPNS_10PluginSpecE() #0 {
  call void @abort()
  ret void
}

; Function Attrs: noinline optnone uwtable
define weak dso_local void @_ZN15ExtensionSystem17PluginDetailsViewC1EP7QWidget() #0 {
  call void @abort()
  ret void
}

; Function Attrs: noinline optnone uwtable
define weak dso_local void @_ZN15ExtensionSystem17PluginDetailsViewD0Ev() #0 {
  call void @abort()
  ret void
}

; Function Attrs: noinline optnone uwtable
define weak dso_local void @_ZN15ExtensionSystem17PluginDetailsViewD1Ev() #0 {
  call void @abort()
  ret void
}

; Function Attrs: noinline optnone uwtable
define weak dso_local void @_ZN15ExtensionSystem19PluginErrorOverviewC1EP7QWidget() #0 {
  call void @abort()
  ret void
}

; Function Attrs: noinline optnone uwtable
define weak dso_local void @_ZN15ExtensionSystem19PluginErrorOverviewD0Ev() #0 {
  call void @abort()
  ret void
}

; Function Attrs: noinline optnone uwtable
define weak dso_local void @_ZN15ExtensionSystem19PluginErrorOverviewD1Ev() #0 {
  call void @abort()
  ret void
}

; Function Attrs: noinline optnone uwtable
define weak dso_local void @_ZN15ProjectExplorer10JsonWizard15boolFromVariantERK8QVariantPN5Utils13MacroExpanderE() #0 {
  call void @abort()
  ret void
}

; Function Attrs: noinline optnone uwtable
define weak dso_local void @_ZN15ProjectExplorer10JsonWizard16staticMetaObjectE() #0 {
  call void @abort()
  ret void
}

; Function Attrs: noinline optnone uwtable
define weak dso_local void @_ZN15ProjectExplorer10JsonWizard8expanderEv() #0 {
  call void @abort()
  ret void
}

; Function Attrs: noinline optnone uwtable
define weak dso_local void @_ZN15ProjectExplorer10JsonWizard8setValueERK7QStringRK8QVariant() #0 {
  call void @abort()
  ret void
}

; Function Attrs: noinline optnone uwtable
define weak dso_local void @_ZN15ProjectExplorer10KitManager10defaultKitEv() #0 {
  call void @abort()
  ret void
}

; Function Attrs: noinline optnone uwtable
define weak dso_local void @_ZN15ProjectExplorer10KitManager10kitAspectsEv() #0 {
  call void @abort()
  ret void
}

; Function Attrs: noinline optnone uwtable
define weak dso_local void @_ZN15ProjectExplorer10KitManager11registerKitERKNSt3__18functionIFvPNS_3KitEEEEN5Utils2IdE() #0 {
  call void @abort()
  ret void
}

; Function Attrs: noinline optnone uwtable
define weak dso_local void @_ZN15ProjectExplorer10KitManager13deregisterKitEPNS_3KitE() #0 {
  call void @abort()
  ret void
}

; Function Attrs: noinline optnone uwtable
define weak dso_local void @_ZN15ProjectExplorer10KitManager13setDefaultKitEPNS_3KitE() #0 {
  call void @abort()
  ret void
}

; Function Attrs: noinline optnone uwtable
define weak dso_local void @_ZN15ProjectExplorer10KitManager17irrelevantAspectsEv() #0 {
  call void @abort()
  ret void
}

; Function Attrs: noinline optnone uwtable
define weak dso_local void @_ZN15ProjectExplorer10KitManager17notifyAboutUpdateEPNS_3KitE() #0 {
  call void @abort()
  ret void
}

; Function Attrs: noinline optnone uwtable
define weak dso_local void @_ZN15ProjectExplorer10KitManager20setIrrelevantAspectsERK4QSetIN5Utils2IdEE() #0 {
  call void @abort()
  ret void
}

; Function Attrs: noinline optnone uwtable
define weak dso_local void @_ZN15ProjectExplorer10KitManager3kitEN5Utils2IdE() #0 {
  call void @abort()
  ret void
}

; Function Attrs: noinline optnone uwtable
define weak dso_local void @_ZN15ProjectExplorer10KitManager3kitERKNSt3__18functionIFbPKNS_3KitEEEE() #0 {
  call void @abort()
  ret void
}

; Function Attrs: noinline optnone uwtable
define weak dso_local void @_ZN15ProjectExplorer10KitManager4kitsEv() #0 {
  call void @abort()
  ret void
}

; Function Attrs: noinline optnone uwtable
define weak dso_local void @_ZN15ProjectExplorer10KitManager8instanceEv() #0 {
  call void @abort()
  ret void
}

; Function Attrs: noinline optnone uwtable
define weak dso_local void @_ZN15ProjectExplorer10KitManager8isLoadedEv() #0 {
  call void @abort()
  ret void
}

; Function Attrs: noinline optnone uwtable
define weak dso_local void @_ZN15ProjectExplorer10KitManager8sortKitsERK5QListIPNS_3KitEE() #0 {
  call void @abort()
  ret void
}

; Function Attrs: noinline optnone uwtable
define weak dso_local void @_ZN15ProjectExplorer10KitManagerD0Ev() #0 {
  call void @abort()
  ret void
}

; Function Attrs: noinline optnone uwtable
define weak dso_local void @_ZN15ProjectExplorer10KitManagerD1Ev() #0 {
  call void @abort()
  ret void
}

; Function Attrs: noinline optnone uwtable
define weak dso_local void @_ZN15ProjectExplorer15KitAspectWidget10setVisibleEb() #0 {
  call void @abort()
  ret void
}

; Function Attrs: noinline optnone uwtable
define weak dso_local void @_ZN15ProjectExplorer15KitAspectWidget11addToLayoutERN5Utils13LayoutBuilderE() #0 {
  call void @abort()
  ret void
}

; Function Attrs: noinline optnone uwtable
define weak dso_local void @_ZN15ProjectExplorer15KitAspectWidget9msgManageEv() #0 {
  call void @abort()
  ret void
}

; Function Attrs: noinline optnone uwtable
define weak dso_local void @_ZN15ProjectExplorer15KitAspectWidgetC2EPNS_3KitEPKNS_9KitAspectE() #0 {
  call void @abort()
  ret void
}

; Function Attrs: noinline optnone uwtable
define weak dso_local void @_ZN15ProjectExplorer17JsonWizardFactory19registerPageFactoryEPNS_21JsonWizardPageFactoryE() #0 {
  call void @abort()
  ret void
}

; Function Attrs: noinline optnone uwtable
define weak dso_local void @_ZN15ProjectExplorer21JsonWizardPageFactory16setTypeIdsSuffixERK7QString() #0 {
  call void @abort()
  ret void
}

; Function Attrs: noinline optnone uwtable
define weak dso_local void @_ZN15ProjectExplorer21JsonWizardPageFactoryD2Ev() #0 {
  call void @abort()
  ret void
}

; Function Attrs: noinline optnone uwtable
define weak dso_local void @_ZN15ProjectExplorer21ProjectExplorerPlugin10initializeERK11QStringListP7QString() #0 {
  call void @abort()
  ret void
}

; Function Attrs: noinline optnone uwtable
define weak dso_local void @_ZN15ProjectExplorer21ProjectExplorerPlugin10renameFileEPNS_4NodeERK7QString() #0 {
  call void @abort()
  ret void
}

; Function Attrs: noinline optnone uwtable
define weak dso_local void @_ZN15ProjectExplorer21ProjectExplorerPlugin11openProjectERK7QString() #0 {
  call void @abort()
  ret void
}

; Function Attrs: noinline optnone uwtable
define weak dso_local void @_ZN15ProjectExplorer21ProjectExplorerPlugin12openProjectsERK11QStringList() #0 {
  call void @abort()
  ret void
}

; Function Attrs: noinline optnone uwtable
define weak dso_local void @_ZN15ProjectExplorer21ProjectExplorerPlugin13customParsersEv() #0 {
  call void @abort()
  ret void
}

; Function Attrs: noinline optnone uwtable
define weak dso_local void @_ZN15ProjectExplorer21ProjectExplorerPlugin13isProjectFileERKN5Utils8FilePathE() #0 {
  call void @abort()
  ret void
}

; Function Attrs: noinline optnone uwtable
define weak dso_local void @_ZN15ProjectExplorer21ProjectExplorerPlugin13updateActionsEv() #0 {
  call void @abort()
  ret void
}

; Function Attrs: noinline optnone uwtable
define weak dso_local void @_ZN15ProjectExplorer21ProjectExplorerPlugin14allRunControlsEv() #0 {
  call void @abort()
  ret void
}

; Function Attrs: noinline optnone uwtable
define weak dso_local void @_ZN15ProjectExplorer21ProjectExplorerPlugin14recentProjectsEv() #0 {
  call void @abort()
  ret void
}

; Function Attrs: noinline optnone uwtable
define weak dso_local void @_ZN15ProjectExplorer21ProjectExplorerPlugin14showQtSettingsEv() #0 {
  call void @abort()
  ret void
}

; Function Attrs: noinline optnone uwtable
define weak dso_local void @_ZN15ProjectExplorer21ProjectExplorerPlugin14targetSelectorEv() #0 {
  call void @abort()
  ret void
}

; Function Attrs: noinline optnone uwtable
define weak dso_local void @_ZN15ProjectExplorer21ProjectExplorerPlugin15aboutToShutdownEv() #0 {
  call void @abort()
  ret void
}

; Function Attrs: noinline optnone uwtable
define weak dso_local void @_ZN15ProjectExplorer21ProjectExplorerPlugin15startRunControlEPNS_10RunControlE() #0 {
  call void @abort()
  ret void
}

; Function Attrs: noinline optnone uwtable
define weak dso_local void @_ZN15ProjectExplorer21ProjectExplorerPlugin16projectFileGlobsEv() #0 {
  call void @abort()
  ret void
}

; Function Attrs: noinline optnone uwtable
define weak dso_local void @_ZN15ProjectExplorer21ProjectExplorerPlugin16setCustomParsersERK5QListINS_20CustomParserSettingsEE() #0 {
  call void @abort()
  ret void
}

; Function Attrs: noinline optnone uwtable
define weak dso_local void @_ZN15ProjectExplorer21ProjectExplorerPlugin16updateRunActionsEv() #0 {
  call void @abort()
  ret void
}

; Function Attrs: noinline optnone uwtable
define weak dso_local void @_ZN15ProjectExplorer21ProjectExplorerPlugin17appOutputSettingsEv() #0 {
  call void @abort()
  ret void
}

; Function Attrs: noinline optnone uwtable
define weak dso_local void @_ZN15ProjectExplorer21ProjectExplorerPlugin17runStartupProjectEN5Utils2IdEb() #0 {
  call void @abort()
  ret void
}

; Function Attrs: noinline optnone uwtable
define weak dso_local void @_ZN15ProjectExplorer21ProjectExplorerPlugin17saveModifiedFilesEv() #0 {
  call void @abort()
  ret void
}

; Function Attrs: noinline optnone uwtable
define weak dso_local void @_ZN15ProjectExplorer21ProjectExplorerPlugin18showSessionManagerEv() #0 {
  call void @abort()
  ret void
}

; Function Attrs: noinline optnone uwtable
define weak dso_local void @_ZN15ProjectExplorer21ProjectExplorerPlugin19clearRecentProjectsEv() #0 {
  call void @abort()
  ret void
}

; Function Attrs: noinline optnone uwtable
define weak dso_local void @_ZN15ProjectExplorer21ProjectExplorerPlugin19runRunConfigurationEPNS_16RunConfigurationEN5Utils2IdEb() #0 {
  call void @abort()
  ret void
}

; Function Attrs: noinline optnone uwtable
define weak dso_local void @_ZN15ProjectExplorer21ProjectExplorerPlugin20canRunStartupProjectEN5Utils2IdEP7QString() #0 {
  call void @abort()
  ret void
}

; Function Attrs: noinline optnone uwtable
define weak dso_local void @_ZN15ProjectExplorer21ProjectExplorerPlugin20openNewProjectDialogEv() #0 {
  call void @abort()
  ret void
}

; Function Attrs: noinline optnone uwtable
define weak dso_local void @_ZN15ProjectExplorer21ProjectExplorerPlugin20setAppOutputSettingsERKNS_8Internal17AppOutputSettingsE() #0 {
  call void @abort()
  ret void
}

; Function Attrs: noinline optnone uwtable
define weak dso_local void @_ZN15ProjectExplorer21ProjectExplorerPlugin20showOpenProjectErrorERKNS0_17OpenProjectResultE() #0 {
  call void @abort()
  ret void
}

; Function Attrs: noinline optnone uwtable
define weak dso_local void @_ZN15ProjectExplorer21ProjectExplorerPlugin21extensionsInitializedEv() #0 {
  call void @abort()
  ret void
}

; Function Attrs: noinline optnone uwtable
define weak dso_local void @_ZN15ProjectExplorer21ProjectExplorerPlugin21openOpenProjectDialogEv() #0 {
  call void @abort()
  ret void
}

; Function Attrs: noinline optnone uwtable
define weak dso_local void @_ZN15ProjectExplorer21ProjectExplorerPlugin22buildDirectoryTemplateEv() #0 {
  call void @abort()
  ret void
}

; Function Attrs: noinline optnone uwtable
define weak dso_local void @_ZN15ProjectExplorer21ProjectExplorerPlugin22openProjectWelcomePageERK7QString() #0 {
  call void @abort()
  ret void
}

; Function Attrs: noinline optnone uwtable
define weak dso_local void @_ZN15ProjectExplorer21ProjectExplorerPlugin23buildPropertiesSettingsEv() #0 {
  call void @abort()
  ret void
}

; Function Attrs: noinline optnone uwtable
define weak dso_local void @_ZN15ProjectExplorer21ProjectExplorerPlugin23projectExplorerSettingsEv() #0 {
  call void @abort()
  ret void
}

; Function Attrs: noinline optnone uwtable
define weak dso_local void @_ZN15ProjectExplorer21ProjectExplorerPlugin24removeFromRecentProjectsERK7QStringS3_() #0 {
  call void @abort()
  ret void
}

; Function Attrs: noinline optnone uwtable
define weak dso_local void @_ZN15ProjectExplorer21ProjectExplorerPlugin26setBuildPropertiesSettingsERKNS_23BuildPropertiesSettingsE() #0 {
  call void @abort()
  ret void
}

; Function Attrs: noinline optnone uwtable
define weak dso_local void @_ZN15ProjectExplorer21ProjectExplorerPlugin26setProjectExplorerSettingsERKNS_8Internal23ProjectExplorerSettingsE() #0 {
  call void @abort()
  ret void
}

; Function Attrs: noinline optnone uwtable
define weak dso_local void @_ZN15ProjectExplorer21ProjectExplorerPlugin29defaultBuildDirectoryTemplateEv() #0 {
  call void @abort()
  ret void
}

; Function Attrs: noinline optnone uwtable
define weak dso_local void @_ZN15ProjectExplorer21ProjectExplorerPlugin8instanceEv() #0 {
  call void @abort()
  ret void
}

; Function Attrs: noinline optnone uwtable
define weak dso_local void @_ZN15ProjectExplorer21ProjectExplorerPluginC1Ev() #0 {
  call void @abort()
  ret void
}

; Function Attrs: noinline optnone uwtable
define weak dso_local void @_ZN15ProjectExplorer21ProjectExplorerPluginD0Ev() #0 {
  call void @abort()
  ret void
}

; Function Attrs: noinline optnone uwtable
define weak dso_local void @_ZN15ProjectExplorer21ProjectExplorerPluginD1Ev() #0 {
  call void @abort()
  ret void
}

; Function Attrs: noinline optnone uwtable
define weak dso_local void @_ZN15ProjectExplorer8Internal16DeviceTestDialog6rejectEv() #0 {
  call void @abort()
  ret void
}

; Function Attrs: noinline optnone uwtable
define weak dso_local void @_ZN15ProjectExplorer8Internal16DeviceTestDialogD0Ev() #0 {
  call void @abort()
  ret void
}

; Function Attrs: noinline optnone uwtable
define weak dso_local void @_ZN15ProjectExplorer8Internal16DeviceTestDialogD1Ev() #0 {
  call void @abort()
  ret void
}

; Function Attrs: noinline optnone uwtable
define weak dso_local void @_ZN15ProjectExplorer8Internal17ProjectWizardPage17runVersionControlERK5QListIN4Core13GeneratedFileEEP7QString() #0 {
  call void @abort()
  ret void
}

; Function Attrs: noinline optnone uwtable
define weak dso_local void @_ZN15ProjectExplorer8Internal17ProjectWizardPage21initializeProjectTreeEPNS_4NodeERK11QStringListN4Core14IWizardFactory10WizardKindENS_13ProjectActionE() #0 {
  call void @abort()
  ret void
}

; Function Attrs: noinline optnone uwtable
define weak dso_local void @_ZN15ProjectExplorer8Internal17ProjectWizardPage25initializeVersionControlsEv() #0 {
  call void @abort()
  ret void
}

; Function Attrs: noinline optnone uwtable
define weak dso_local void @_ZN15ProjectExplorer8Internal17ProjectWizardPage8setFilesERK11QStringList() #0 {
  call void @abort()
  ret void
}

; Function Attrs: noinline optnone uwtable
define weak dso_local void @_ZN15ProjectExplorer8Internal17ProjectWizardPageC1EP7QWidget() #0 {
  call void @abort()
  ret void
}

; Function Attrs: noinline optnone uwtable
define weak dso_local void @_ZN15ProjectExplorer8Internal17ProjectWizardPageD0Ev() #0 {
  call void @abort()
  ret void
}

; Function Attrs: noinline optnone uwtable
define weak dso_local void @_ZN15ProjectExplorer8Internal17ProjectWizardPageD1Ev() #0 {
  call void @abort()
  ret void
}

; Function Attrs: noinline optnone uwtable
define weak dso_local void @_ZN15ProjectExplorer8Internal20DeviceSettingsWidget12saveSettingsEv() #0 {
  call void @abort()
  ret void
}

; Function Attrs: noinline optnone uwtable
define weak dso_local void @_ZN15ProjectExplorer8Internal20DeviceSettingsWidgetC1Ev() #0 {
  call void @abort()
  ret void
}

; Function Attrs: noinline optnone uwtable
define weak dso_local void @_ZN15ProjectExplorer8Internal20DeviceSettingsWidgetD0Ev() #0 {
  call void @abort()
  ret void
}

; Function Attrs: noinline optnone uwtable
define weak dso_local void @_ZN15ProjectExplorer8Internal20DeviceSettingsWidgetD1Ev() #0 {
  call void @abort()
  ret void
}

; Function Attrs: noinline optnone uwtable
define weak dso_local void @_ZN15ProjectExplorer8Internal22SessionNameInputDialog13setActionTextERK7QStringS4_() #0 {
  call void @abort()
  ret void
}

; Function Attrs: noinline optnone uwtable
define weak dso_local void @_ZN15ProjectExplorer8Internal22SessionNameInputDialog8setValueERK7QString() #0 {
  call void @abort()
  ret void
}

; Function Attrs: noinline optnone uwtable
define weak dso_local void @_ZN15ProjectExplorer8Internal22SessionNameInputDialogC1EP7QWidget() #0 {
  call void @abort()
  ret void
}

; Function Attrs: noinline optnone uwtable
define weak dso_local void @_ZN15ProjectExplorer8Internal24CustomParserConfigDialog11setSettingsERKNS_20CustomParserSettingsE() #0 {
  call void @abort()
  ret void
}

; Function Attrs: noinline optnone uwtable
define weak dso_local void @_ZN15ProjectExplorer8Internal24CustomParserConfigDialogC1EP7QWidget() #0 {
  call void @abort()
  ret void
}

; Function Attrs: noinline optnone uwtable
define weak dso_local void @_ZN15ProjectExplorer8Internal24CustomParserConfigDialogD0Ev() #0 {
  call void @abort()
  ret void
}

; Function Attrs: noinline optnone uwtable
define weak dso_local void @_ZN15ProjectExplorer8Internal24CustomParserConfigDialogD1Ev() #0 {
  call void @abort()
  ret void
}

; Function Attrs: noinline optnone uwtable
define weak dso_local void @_ZN15ProjectExplorer8Internal28DeviceFactorySelectionDialogD0Ev() #0 {
  call void @abort()
  ret void
}

; Function Attrs: noinline optnone uwtable
define weak dso_local void @_ZN15ProjectExplorer8Internal28DeviceFactorySelectionDialogD1Ev() #0 {
  call void @abort()
  ret void
}

; Function Attrs: noinline optnone uwtable
define weak dso_local void @_ZN15ProjectExplorer9KitAspect17notifyAboutUpdateEPNS_3KitE() #0 {
  call void @abort()
  ret void
}

; Function Attrs: noinline nounwind optnone uwtable
define dso_local zeroext i1 @_ZN15ProjectExplorer9KitAspectC2Ev() #2 {
  ret i1 false
}

; Function Attrs: noinline optnone uwtable
define weak dso_local void @_ZN15ProjectExplorer9KitAspectD0Ev() #0 {
  call void @abort()
  ret void
}

; Function Attrs: noinline optnone uwtable
define weak dso_local void @_ZN15ProjectExplorer9KitAspectD1Ev() #0 {
  call void @abort()
  ret void
}

; Function Attrs: noinline optnone uwtable
define weak dso_local void @_ZN15ProjectExplorer9KitAspectD2Ev() #0 {
  call void @abort()
  ret void
}

; Function Attrs: noinline optnone uwtable
define weak dso_local void @_ZN16ProFileEvaluator10initializeEv() #0 {
  call void @abort()
  ret void
}

; Function Attrs: noinline optnone uwtable
define weak dso_local void @_ZN16ProFileEvaluator15setExtraConfigsERK11QStringList() #0 {
  call void @abort()
  ret void
}

; Function Attrs: noinline optnone uwtable
define weak dso_local void @_ZN16ProFileEvaluatorC2EP12QMakeGlobalsP11QMakeParserP8QMakeVfsP12QMakeHandler() #0 {
  call void @abort()
  ret void
}

; Function Attrs: noinline optnone uwtable
define weak dso_local void @_ZN16ProFileEvaluatorD2Ev() #0 {
  call void @abort()
  ret void
}

; Function Attrs: noinline optnone uwtable
define weak dso_local void @_ZN19KSyntaxHighlighting10DefinitionC1ERKS0_() #0 {
  call void @abort()
  ret void
}

; Function Attrs: noinline optnone uwtable
define weak dso_local void @_ZN19KSyntaxHighlighting10DefinitionD1Ev() #0 {
  call void @abort()
  ret void
}

; Function Attrs: noinline optnone uwtable
define weak dso_local void @_ZN19KSyntaxHighlighting10Repository19addCustomSearchPathERK7QString() #0 {
  call void @abort()
  ret void
}

; Function Attrs: noinline optnone uwtable
define weak dso_local void @_ZN19KSyntaxHighlighting10Repository6reloadEv() #0 {
  call void @abort()
  ret void
}

; Function Attrs: noinline optnone uwtable
define weak dso_local void @_ZN19KSyntaxHighlighting10RepositoryC1Ev() #0 {
  call void @abort()
  ret void
}

; Function Attrs: noinline optnone uwtable
define weak dso_local void @_ZN19KSyntaxHighlighting10RepositoryD1Ev() #0 {
  call void @abort()
  ret void
}

; Function Attrs: noinline optnone uwtable
define weak dso_local void @_ZN19KSyntaxHighlighting19AbstractHighlighter13highlightLineERK7QStringRKNS_5StateE() #0 {
  call void @abort()
  ret void
}

; Function Attrs: noinline optnone uwtable
define weak dso_local void @_ZN19KSyntaxHighlighting19AbstractHighlighter13setDefinitionERKNS_10DefinitionE() #0 {
  call void @abort()
  ret void
}

; Function Attrs: noinline optnone uwtable
define weak dso_local void @_ZN19KSyntaxHighlighting19AbstractHighlighter8setThemeERKNS_5ThemeE() #0 {
  call void @abort()
  ret void
}

; Function Attrs: noinline optnone uwtable
define weak dso_local void @_ZN19KSyntaxHighlighting19AbstractHighlighterC2Ev() #0 {
  call void @abort()
  ret void
}

; Function Attrs: noinline optnone uwtable
define weak dso_local void @_ZN19KSyntaxHighlighting19AbstractHighlighterD2Ev() #0 {
  call void @abort()
  ret void
}

; Function Attrs: noinline optnone uwtable
define weak dso_local void @_ZN19KSyntaxHighlighting20DefinitionDownloader16staticMetaObjectE() #0 {
  call void @abort()
  ret void
}

; Function Attrs: noinline optnone uwtable
define weak dso_local void @_ZN19KSyntaxHighlighting20DefinitionDownloader18informationMessageERK7QString() #0 {
  call void @abort()
  ret void
}

; Function Attrs: noinline optnone uwtable
define weak dso_local void @_ZN19KSyntaxHighlighting20DefinitionDownloader4doneEv() #0 {
  call void @abort()
  ret void
}

; Function Attrs: noinline optnone uwtable
define weak dso_local void @_ZN19KSyntaxHighlighting20DefinitionDownloader5startEv() #0 {
  call void @abort()
  ret void
}

; Function Attrs: noinline optnone uwtable
define weak dso_local void @_ZN19KSyntaxHighlighting20DefinitionDownloaderC1EPNS_10RepositoryEP7QObject() #0 {
  call void @abort()
  ret void
}

; Function Attrs: noinline optnone uwtable
define weak dso_local void @_ZN19KSyntaxHighlighting5StateC1ERKS0_() #0 {
  call void @abort()
  ret void
}

; Function Attrs: noinline optnone uwtable
define weak dso_local void @_ZN19KSyntaxHighlighting5StateC1Ev() #0 {
  call void @abort()
  ret void
}

; Function Attrs: noinline optnone uwtable
define weak dso_local void @_ZN19KSyntaxHighlighting5StateD1Ev() #0 {
  call void @abort()
  ret void
}

; Function Attrs: noinline optnone uwtable
define weak dso_local void @_ZN19KSyntaxHighlighting5StateaSERKS0_() #0 {
  call void @abort()
  ret void
}

; Function Attrs: noinline optnone uwtable
define weak dso_local void @_ZN19KSyntaxHighlighting5Theme16staticMetaObjectE() #0 {
  call void @abort()
  ret void
}

; Function Attrs: noinline optnone uwtable
define weak dso_local void @_ZN19KSyntaxHighlighting5ThemeC1Ev() #0 {
  call void @abort()
  ret void
}

; Function Attrs: noinline optnone uwtable
define weak dso_local void @_ZN19KSyntaxHighlighting5ThemeD1Ev() #0 {
  call void @abort()
  ret void
}

; Function Attrs: noinline optnone uwtable
define weak dso_local void @_ZN20FilePropertiesDialogD0Ev() #0 {
  call void @abort()
  ret void
}

; Function Attrs: noinline optnone uwtable
define weak dso_local void @_ZN20FilePropertiesDialogD1Ev() #0 {
  call void @abort()
  ret void
}

; Function Attrs: noinline optnone uwtable
define weak dso_local void @_ZN4Core11IFindFilter11qt_metacallEN11QMetaObject4CallEiPPv() #0 {
  call void @abort()
  ret void
}

; Function Attrs: noinline optnone uwtable
define weak dso_local void @_ZN4Core11IFindFilter11qt_metacastEPKc() #0 {
  call void @abort()
  ret void
}

; Function Attrs: noinline optnone uwtable
define weak dso_local void @_ZN4Core11IFindFilter12validChangedEb() #0 {
  call void @abort()
  ret void
}

; Function Attrs: noinline optnone uwtable
define weak dso_local void @_ZN4Core11IFindFilter14enabledChangedEb() #0 {
  call void @abort()
  ret void
}

; Function Attrs: noinline optnone uwtable
define weak dso_local void @_ZN4Core11IFindFilter16staticMetaObjectE() #0 {
  call void @abort()
  ret void
}

; Function Attrs: noinline optnone uwtable
define weak dso_local void @_ZN4Core11IFindFilter18displayNameChangedEv() #0 {
  call void @abort()
  ret void
}

; Function Attrs: noinline optnone uwtable
define weak dso_local void @_ZN4Core11IFindFilter23descriptionForFindFlagsE6QFlagsINS_8FindFlagEE() #0 {
  call void @abort()
  ret void
}

; Function Attrs: noinline optnone uwtable
define weak dso_local void @_ZN4Core11IFindFilterC2Ev() #0 {
  call void @abort()
  ret void
}

; Function Attrs: noinline optnone uwtable
define weak dso_local void @_ZN4Core11IFindFilterD2Ev() #0 {
  call void @abort()
  ret void
}

; Function Attrs: noinline optnone uwtable
define weak dso_local void @_ZN4Core12BaseTextFindC1EP14QPlainTextEdit() #0 {
  call void @abort()
  ret void
}

; Function Attrs: noinline optnone uwtable
define weak dso_local void @_ZN4Core12BaseTextFindC1EP9QTextEdit() #0 {
  call void @abort()
  ret void
}

; Function Attrs: noinline optnone uwtable
define weak dso_local void @_ZN4Core12IFindSupport10replaceAllERK7QStringS3_6QFlagsINS_8FindFlagEE() #0 {
  call void @abort()
  ret void
}

; Function Attrs: noinline optnone uwtable
define weak dso_local void @_ZN4Core12IFindSupport11qt_metacallEN11QMetaObject4CallEiPPv() #0 {
  call void @abort()
  ret void
}

; Function Attrs: noinline optnone uwtable
define weak dso_local void @_ZN4Core12IFindSupport11qt_metacastEPKc() #0 {
  call void @abort()
  ret void
}

; Function Attrs: noinline optnone uwtable
define weak dso_local void @_ZN4Core12IFindSupport11replaceStepERK7QStringS3_6QFlagsINS_8FindFlagEE() #0 {
  call void @abort()
  ret void
}

; Function Attrs: noinline optnone uwtable
define weak dso_local void @_ZN4Core12IFindSupport16staticMetaObjectE() #0 {
  call void @abort()
  ret void
}

; Function Attrs: noinline optnone uwtable
define weak dso_local void @_ZN4Core12IFindSupport17showWrapIndicatorEP7QWidget() #0 {
  call void @abort()
  ret void
}

; Function Attrs: noinline optnone uwtable
define weak dso_local void @_ZN4Core12IFindSupport7replaceERK7QStringS3_6QFlagsINS_8FindFlagEE() #0 {
  call void @abort()
  ret void
}

; Function Attrs: noinline optnone uwtable
define weak dso_local void @_ZN4Core12ItemViewFind11qt_metacallEN11QMetaObject4CallEiPPv() #0 {
  call void @abort()
  ret void
}

; Function Attrs: noinline optnone uwtable
define weak dso_local void @_ZN4Core12ItemViewFind11qt_metacastEPKc() #0 {
  call void @abort()
  ret void
}

; Function Attrs: noinline optnone uwtable
define weak dso_local void @_ZN4Core12ItemViewFind12highlightAllERK7QString6QFlagsINS_8FindFlagEE() #0 {
  call void @abort()
  ret void
}

; Function Attrs: noinline optnone uwtable
define weak dso_local void @_ZN4Core12ItemViewFind15clearHighlightsEv() #0 {
  call void @abort()
  ret void
}

; Function Attrs: noinline optnone uwtable
define weak dso_local void @_ZN4Core12ItemViewFind15findIncrementalERK7QString6QFlagsINS_8FindFlagEE() #0 {
  call void @abort()
  ret void
}

; Function Attrs: noinline optnone uwtable
define weak dso_local void @_ZN4Core12ItemViewFind22resetIncrementalSearchEv() #0 {
  call void @abort()
  ret void
}

; Function Attrs: noinline optnone uwtable
define weak dso_local void @_ZN4Core12ItemViewFind23createSearchableWrapperEP17QAbstractItemViewNS0_11ColorOptionENS0_11FetchOptionE() #0 {
  call void @abort()
  ret void
}

; Function Attrs: noinline optnone uwtable
define weak dso_local void @_ZN4Core12ItemViewFind23createSearchableWrapperEPS0_NS0_11ColorOptionE() #0 {
  call void @abort()
  ret void
}

; Function Attrs: noinline optnone uwtable
define weak dso_local void @_ZN4Core12ItemViewFind8findStepERK7QString6QFlagsINS_8FindFlagEE() #0 {
  call void @abort()
  ret void
}

; Function Attrs: noinline optnone uwtable
define weak dso_local void @_ZN4Core12ItemViewFindC2EP17QAbstractItemViewiNS0_11FetchOptionE() #0 {
  call void @abort()
  ret void
}

; Function Attrs: noinline optnone uwtable
define weak dso_local void @_ZN4Core12ItemViewFindD2Ev() #0 {
  call void @abort()
  ret void
}

; Function Attrs: noinline optnone uwtable
define weak dso_local void @_ZN4Core12OptionsPopupC1EP7QWidgetRK7QVectorIN5Utils2IdEE() #0 {
  call void @abort()
  ret void
}

; Function Attrs: noinline optnone uwtable
define weak dso_local void @_ZN4Core12SearchResult10addResultsERK5QListINS_16SearchResultItemEENS0_7AddModeE() #0 {
  call void @abort()
  ret void
}

; Function Attrs: noinline optnone uwtable
define weak dso_local void @_ZN4Core12SearchResult11setUserDataERK8QVariant() #0 {
  call void @abort()
  ret void
}

; Function Attrs: noinline optnone uwtable
define weak dso_local void @_ZN4Core12SearchResult12countChangedEi() #0 {
  call void @abort()
  ret void
}

; Function Attrs: noinline optnone uwtable
define weak dso_local void @_ZN4Core12SearchResult12finishSearchEb() #0 {
  call void @abort()
  ret void
}

; Function Attrs: noinline optnone uwtable
define weak dso_local void @_ZN4Core12SearchResult16setTextToReplaceERK7QString() #0 {
  call void @abort()
  ret void
}

; Function Attrs: noinline optnone uwtable
define weak dso_local void @_ZN4Core12SearchResult16staticMetaObjectE() #0 {
  call void @abort()
  ret void
}

; Function Attrs: noinline optnone uwtable
define weak dso_local void @_ZN4Core12SearchResult17visibilityChangedEb() #0 {
  call void @abort()
  ret void
}

; Function Attrs: noinline optnone uwtable
define weak dso_local void @_ZN4Core12SearchResult19requestEnabledCheckEv() #0 {
  call void @abort()
  ret void
}

; Function Attrs: noinline optnone uwtable
define weak dso_local void @_ZN4Core12SearchResult20replaceButtonClickedERK7QStringRK5QListINS_16SearchResultItemEEb() #0 {
  call void @abort()
  ret void
}

; Function Attrs: noinline optnone uwtable
define weak dso_local void @_ZN4Core12SearchResult20searchAgainRequestedEv() #0 {
  call void @abort()
  ret void
}

; Function Attrs: noinline optnone uwtable
define weak dso_local void @_ZN4Core12SearchResult21setSearchAgainEnabledEb() #0 {
  call void @abort()
  ret void
}

; Function Attrs: noinline optnone uwtable
define weak dso_local void @_ZN4Core12SearchResult23setSearchAgainSupportedEb() #0 {
  call void @abort()
  ret void
}

; Function Attrs: noinline optnone uwtable
define weak dso_local void @_ZN4Core12SearchResult26setAdditionalReplaceWidgetEP7QWidget() #0 {
  call void @abort()
  ret void
}

; Function Attrs: noinline optnone uwtable
define weak dso_local void @_ZN4Core12SearchResult5popupEv() #0 {
  call void @abort()
  ret void
}

; Function Attrs: noinline optnone uwtable
define weak dso_local void @_ZN4Core12SearchResult6pausedEb() #0 {
  call void @abort()
  ret void
}

; Function Attrs: noinline optnone uwtable
define weak dso_local void @_ZN4Core12SearchResult7restartEv() #0 {
  call void @abort()
  ret void
}

; Function Attrs: noinline optnone uwtable
define weak dso_local void @_ZN4Core12SearchResult9activatedERKNS_16SearchResultItemE() #0 {
  call void @abort()
  ret void
}

; Function Attrs: noinline optnone uwtable
define weak dso_local void @_ZN4Core12SearchResult9addResultERK7QStringS3_NS_6Search9TextRangeERK8QVariantNS_17SearchResultColor5StyleE() #0 {
  call void @abort()
  ret void
}

; Function Attrs: noinline optnone uwtable
define weak dso_local void @_ZN4Core12SearchResult9addResultERK7QStringiS3_iiRK8QVariantNS_17SearchResultColor5StyleE() #0 {
  call void @abort()
  ret void
}

; Function Attrs: noinline optnone uwtable
define weak dso_local void @_ZN4Core12SearchResult9cancelledEv() #0 {
  call void @abort()
  ret void
}

; Function Attrs: noinline optnone uwtable
define weak dso_local void @_ZN4Core12ShellCommand11qt_metacallEN11QMetaObject4CallEiPPv() #0 {
  call void @abort()
  ret void
}

; Function Attrs: noinline optnone uwtable
define weak dso_local void @_ZN4Core12ShellCommand11qt_metacastEPKc() #0 {
  call void @abort()
  ret void
}

; Function Attrs: noinline optnone uwtable
define weak dso_local void @_ZN4Core12ShellCommand16staticMetaObjectE() #0 {
  call void @abort()
  ret void
}

; Function Attrs: noinline optnone uwtable
define weak dso_local void @_ZN4Core12ShellCommand7addTaskER7QFutureIvE() #0 {
  call void @abort()
  ret void
}

; Function Attrs: noinline optnone uwtable
define weak dso_local void @_ZN4Core12ShellCommandC2ERK7QStringRK19QProcessEnvironment() #0 {
  call void @abort()
  ret void
}

; Function Attrs: noinline optnone uwtable
define weak dso_local void @_ZN4Core13EditorManager10openEditorERK7QStringN5Utils2IdE6QFlagsINS0_14OpenEditorFlagEEPb() #0 {
  call void @abort()
  ret void
}

; Function Attrs: noinline optnone uwtable
define weak dso_local void @_ZN4Core13EditorManager12openEditorAtERK7QStringiiN5Utils2IdE6QFlagsINS0_14OpenEditorFlagEEPb() #0 {
  call void @abort()
  ret void
}

; Function Attrs: noinline optnone uwtable
define weak dso_local void @_ZN4Core13EditorManager12restoreStateERK10QByteArray() #0 {
  call void @abort()
  ret void
}

; Function Attrs: noinline optnone uwtable
define weak dso_local void @_ZN4Core13EditorManager12saveDocumentEPNS_9IDocumentE() #0 {
  call void @abort()
  ret void
}

; Function Attrs: noinline optnone uwtable
define weak dso_local void @_ZN4Core13EditorManager12saveDocumentEv() #0 {
  call void @abort()
  ret void
}

; Function Attrs: noinline optnone uwtable
define weak dso_local void @_ZN4Core13EditorManager13clearUniqueIdEPNS_9IDocumentE() #0 {
  call void @abort()
  ret void
}

; Function Attrs: noinline optnone uwtable
define weak dso_local void @_ZN4Core13EditorManager13currentEditorEv() #0 {
  call void @abort()
  ret void
}

; Function Attrs: noinline optnone uwtable
define weak dso_local void @_ZN4Core13EditorManager13revertToSavedEv() #0 {
  call void @abort()
  ret void
}

; Function Attrs: noinline optnone uwtable
define weak dso_local void @_ZN4Core13EditorManager14activateEditorEPNS_7IEditorE6QFlagsINS0_14OpenEditorFlagEE() #0 {
  call void @abort()
  ret void
}

; Function Attrs: noinline optnone uwtable
define weak dso_local void @_ZN4Core13EditorManager14closeDocumentsERK5QListIPNS_13DocumentModel5EntryEE() #0 {
  call void @abort()
  ret void
}

; Function Attrs: noinline nounwind optnone uwtable
define dso_local zeroext i1 @_ZN4Core13EditorManager14closeDocumentsERK5QListIPNS_9IDocumentEEb() #2 {
  ret i1 false
}

; Function Attrs: noinline optnone uwtable
define weak dso_local void @_ZN4Core13EditorManager14gotoOtherSplitEv() #0 {
  call void @abort()
  ret void
}

; Function Attrs: noinline optnone uwtable
define weak dso_local void @_ZN4Core13EditorManager14saveDocumentAsEv() #0 {
  call void @abort()
  ret void
}

; Function Attrs: noinline optnone uwtable
define weak dso_local void @_ZN4Core13EditorManager14visibleEditorsEv() #0 {
  call void @abort()
  ret void
}

; Function Attrs: noinline optnone uwtable
define weak dso_local void @_ZN4Core13EditorManager15closeAllEditorsEb() #0 {
  call void @abort()
  ret void
}

; Function Attrs: noinline optnone uwtable
define weak dso_local void @_ZN4Core13EditorManager15currentDocumentEv() #0 {
  call void @abort()
  ret void
}

; Function Attrs: noinline optnone uwtable
define weak dso_local void @_ZN4Core13EditorManager15maxTextFileSizeEv() #0 {
  call void @abort()
  ret void
}

; Function Attrs: noinline optnone uwtable
define weak dso_local void @_ZN4Core13EditorManager15splitSideBySideEv() #0 {
  call void @abort()
  ret void
}

; Function Attrs: noinline optnone uwtable
define weak dso_local void @_ZN4Core13EditorManager16defaultTextCodecEv() #0 {
  call void @abort()
  ret void
}

; Function Attrs: noinline optnone uwtable
define weak dso_local void @_ZN4Core13EditorManager17defaultLineEndingEv() #0 {
  call void @abort()
  ret void
}

; Function Attrs: noinline optnone uwtable
define weak dso_local void @_ZN4Core13EditorManager18updateWindowTitlesEv() #0 {
  call void @abort()
  ret void
}

; Function Attrs: noinline optnone uwtable
define weak dso_local void @_ZN4Core13EditorManager19addPinEditorActionsEP5QMenuPNS_13DocumentModel5EntryE() #0 {
  call void @abort()
  ret void
}

; Function Attrs: noinline optnone uwtable
define weak dso_local void @_ZN4Core13EditorManager19closeOtherDocumentsEv() #0 {
  call void @abort()
  ret void
}

; Function Attrs: noinline optnone uwtable
define weak dso_local void @_ZN4Core13EditorManager22activateEditorForEntryEPNS_13DocumentModel5EntryE6QFlagsINS0_14OpenEditorFlagEE() #0 {
  call void @abort()
  ret void
}

; Function Attrs: noinline optnone uwtable
define weak dso_local void @_ZN4Core13EditorManager22addCloseEditorListenerERKNSt3__18functionIFbPNS_7IEditorEEEE() #0 {
  call void @abort()
  ret void
}

; Function Attrs: noinline optnone uwtable
define weak dso_local void @_ZN4Core13EditorManager22openEditorWithContentsEN5Utils2IdEP7QStringRK10QByteArrayRKS3_6QFlagsINS0_14OpenEditorFlagEE() #0 {
  call void @abort()
  ret void
}

; Function Attrs: noinline optnone uwtable
define weak dso_local void @_ZN4Core13EditorManager22setSessionTitleHandlerENSt3__18functionIF7QStringRKS3_EEE() #0 {
  call void @abort()
  ret void
}

; Function Attrs: noinline optnone uwtable
define weak dso_local void @_ZN4Core13EditorManager22skipOpeningBigTextFileERK7QString() #0 {
  call void @abort()
  ret void
}

; Function Attrs: noinline optnone uwtable
define weak dso_local void @_ZN4Core13EditorManager24openEditorAtSearchResultERKNS_16SearchResultItemEN5Utils2IdE6QFlagsINS0_14OpenEditorFlagEEPb() #0 {
  call void @abort()
  ret void
}

; Function Attrs: noinline optnone uwtable
define weak dso_local void @_ZN4Core13EditorManager25activateEditorForDocumentEPNS_9IDocumentE6QFlagsINS0_14OpenEditorFlagEE() #0 {
  call void @abort()
  ret void
}

; Function Attrs: noinline optnone uwtable
define weak dso_local void @_ZN4Core13EditorManager25goBackInNavigationHistoryEv() #0 {
  call void @abort()
  ret void
}

; Function Attrs: noinline optnone uwtable
define weak dso_local void @_ZN4Core13EditorManager27cutForwardNavigationHistoryEv() #0 {
  call void @abort()
  ret void
}

; Function Attrs: noinline optnone uwtable
define weak dso_local void @_ZN4Core13EditorManager28addSaveAndCloseEditorActionsEP5QMenuPNS_13DocumentModel5EntryEPNS_7IEditorE() #0 {
  call void @abort()
  ret void
}

; Function Attrs: noinline optnone uwtable
define weak dso_local void @_ZN4Core13EditorManager28goForwardInNavigationHistoryEv() #0 {
  call void @abort()
  ret void
}

; Function Attrs: noinline optnone uwtable
define weak dso_local void @_ZN4Core13EditorManager29setWindowTitleAdditionHandlerENSt3__18functionIF7QStringRKS3_EEE() #0 {
  call void @abort()
  ret void
}

; Function Attrs: noinline optnone uwtable
define weak dso_local void @_ZN4Core13EditorManager29setWindowTitleVcsTopicHandlerENSt3__18functionIF7QStringRKS3_EEE() #0 {
  call void @abort()
  ret void
}

; Function Attrs: noinline optnone uwtable
define weak dso_local void @_ZN4Core13EditorManager30addNativeDirAndOpenWithActionsEP5QMenuPNS_13DocumentModel5EntryE() #0 {
  call void @abort()
  ret void
}

; Function Attrs: noinline optnone uwtable
define weak dso_local void @_ZN4Core13EditorManager32slotCloseCurrentEditorOrDocumentEv() #0 {
  call void @abort()
  ret void
}

; Function Attrs: noinline optnone uwtable
define weak dso_local void @_ZN4Core13EditorManager37addCurrentPositionToNavigationHistoryERK10QByteArray() #0 {
  call void @abort()
  ret void
}

; Function Attrs: noinline optnone uwtable
define weak dso_local void @_ZN4Core13EditorManager8instanceEv() #0 {
  call void @abort()
  ret void
}

; Function Attrs: noinline optnone uwtable
define weak dso_local void @_ZN4Core13EditorManager9saveStateEv() #0 {
  call void @abort()
  ret void
}

; Function Attrs: noinline optnone uwtable
define weak dso_local void @_ZN4Core13EditorManagerD0Ev() #0 {
  call void @abort()
  ret void
}

; Function Attrs: noinline optnone uwtable
define weak dso_local void @_ZN4Core13EditorManagerD1Ev() #0 {
  call void @abort()
  ret void
}

; Function Attrs: noinline optnone uwtable
define weak dso_local void @_ZN4Core14BaseFileFilter10matchesForER16QFutureInterfaceINS_18LocatorFilterEntryEERK7QString() #0 {
  call void @abort()
  ret void
}

; Function Attrs: noinline optnone uwtable
define weak dso_local void @_ZN4Core14BaseFileFilter11qt_metacallEN11QMetaObject4CallEiPPv() #0 {
  call void @abort()
  ret void
}

; Function Attrs: noinline optnone uwtable
define weak dso_local void @_ZN4Core14BaseFileFilter11qt_metacastEPKc() #0 {
  call void @abort()
  ret void
}

; Function Attrs: noinline optnone uwtable
define weak dso_local void @_ZN4Core14BaseFileFilter12ListIteratorC1ERK5QListIN5Utils8FilePathEE() #0 {
  call void @abort()
  ret void
}

; Function Attrs: noinline optnone uwtable
define weak dso_local void @_ZN4Core14BaseFileFilter12fileIteratorEv() #0 {
  call void @abort()
  ret void
}

; Function Attrs: noinline optnone uwtable
define weak dso_local void @_ZN4Core14BaseFileFilter13prepareSearchERK7QString() #0 {
  call void @abort()
  ret void
}

; Function Attrs: noinline optnone uwtable
define weak dso_local void @_ZN4Core14BaseFileFilter15setFileIteratorEPNS0_8IteratorE() #0 {
  call void @abort()
  ret void
}

; Function Attrs: noinline optnone uwtable
define weak dso_local void @_ZN4Core14BaseFileFilter16staticMetaObjectE() #0 {
  call void @abort()
  ret void
}

; Function Attrs: noinline optnone uwtable
define weak dso_local void @_ZN4Core14BaseFileFilter8IteratorD2Ev() #0 {
  call void @abort()
  ret void
}

; Function Attrs: noinline optnone uwtable
define weak dso_local void @_ZN4Core14BaseFileFilterC2Ev() #0 {
  call void @abort()
  ret void
}

; Function Attrs: noinline optnone uwtable
define weak dso_local void @_ZN4Core14BaseFileFilterD2Ev() #0 {
  call void @abort()
  ret void
}

; Function Attrs: noinline optnone uwtable
define weak dso_local void @_ZN4Core14ILocatorFilter11qt_metacallEN11QMetaObject4CallEiPPv() #0 {
  call void @abort()
  ret void
}

; Function Attrs: noinline optnone uwtable
define weak dso_local void @_ZN4Core14ILocatorFilter11qt_metacastEPKc() #0 {
  call void @abort()
  ret void
}

; Function Attrs: noinline optnone uwtable
define weak dso_local void @_ZN4Core14ILocatorFilter11setPriorityENS0_8PriorityE() #0 {
  call void @abort()
  ret void
}

; Function Attrs: noinline optnone uwtable
define weak dso_local void @_ZN4Core14ILocatorFilter12createRegExpERK7QStringN2Qt15CaseSensitivityE() #0 {
  call void @abort()
  ret void
}

; Function Attrs: noinline optnone uwtable
define weak dso_local void @_ZN4Core14ILocatorFilter12restoreStateERK10QByteArray() #0 {
  call void @abort()
  ret void
}

; Function Attrs: noinline optnone uwtable
define weak dso_local void @_ZN4Core14ILocatorFilter13highlightInfoERK23QRegularExpressionMatchNS_18LocatorFilterEntry13HighlightInfo8DataTypeE() #0 {
  call void @abort()
  ret void
}

; Function Attrs: noinline optnone uwtable
define weak dso_local void @_ZN4Core14ILocatorFilter13prepareSearchERK7QString() #0 {
  call void @abort()
  ret void
}

; Function Attrs: noinline optnone uwtable
define weak dso_local void @_ZN4Core14ILocatorFilter14setDisplayNameERK7QString() #0 {
  call void @abort()
  ret void
}

; Function Attrs: noinline optnone uwtable
define weak dso_local void @_ZN4Core14ILocatorFilter15caseSensitivityERK7QString() #0 {
  call void @abort()
  ret void
}

; Function Attrs: noinline optnone uwtable
define weak dso_local void @_ZN4Core14ILocatorFilter16openConfigDialogEP7QWidgetRb() #0 {
  call void @abort()
  ret void
}

; Function Attrs: noinline optnone uwtable
define weak dso_local void @_ZN4Core14ILocatorFilter16staticMetaObjectE() #0 {
  call void @abort()
  ret void
}

; Function Attrs: noinline optnone uwtable
define weak dso_local void @_ZN4Core14ILocatorFilter17setShortcutStringERK7QString() #0 {
  call void @abort()
  ret void
}

; Function Attrs: noinline optnone uwtable
define weak dso_local void @_ZN4Core14ILocatorFilter20setIncludedByDefaultEb() #0 {
  call void @abort()
  ret void
}

; Function Attrs: noinline optnone uwtable
define weak dso_local void @_ZN4Core14ILocatorFilter5setIdEN5Utils2IdE() #0 {
  call void @abort()
  ret void
}

; Function Attrs: noinline optnone uwtable
define weak dso_local void @_ZN4Core14ILocatorFilterC2EP7QObject() #0 {
  call void @abort()
  ret void
}

; Function Attrs: noinline optnone uwtable
define weak dso_local void @_ZN4Core14ILocatorFilterD2Ev() #0 {
  call void @abort()
  ret void
}

; Function Attrs: noinline optnone uwtable
define weak dso_local void @_ZN4Core14LocatorManager15locatorHasFocusEv() #0 {
  call void @abort()
  ret void
}

; Function Attrs: noinline optnone uwtable
define weak dso_local void @_ZN4Core14LocatorManager24createLocatorInputWidgetEP7QWidget() #0 {
  call void @abort()
  ret void
}

; Function Attrs: noinline optnone uwtable
define weak dso_local void @_ZN4Core14LocatorManager4showERK7QStringii() #0 {
  call void @abort()
  ret void
}

; Function Attrs: noinline optnone uwtable
define weak dso_local void @_ZN4Core15DocumentManager11addDocumentEPNS_9IDocumentEb() #0 {
  call void @abort()
  ret void
}

; Function Attrs: noinline optnone uwtable
define weak dso_local void @_ZN4Core15DocumentManager11filePathKeyERK7QStringNS0_11ResolveModeE() #0 {
  call void @abort()
  ret void
}

; Function Attrs: noinline optnone uwtable
define weak dso_local void @_ZN4Core15DocumentManager11renamedFileERK7QStringS3_() #0 {
  call void @abort()
  ret void
}

; Function Attrs: noinline optnone uwtable
define weak dso_local void @_ZN4Core15DocumentManager16clearRecentFilesEv() #0 {
  call void @abort()
  ret void
}

; Function Attrs: noinline optnone uwtable
define weak dso_local void @_ZN4Core15DocumentManager16expectFileChangeERK7QString() #0 {
  call void @abort()
  ret void
}

; Function Attrs: noinline optnone uwtable
define weak dso_local void @_ZN4Core15DocumentManager17projectsDirectoryEv() #0 {
  call void @abort()
  ret void
}

; Function Attrs: noinline optnone uwtable
define weak dso_local void @_ZN4Core15DocumentManager18unexpectFileChangeERK7QString() #0 {
  call void @abort()
  ret void
}

; Function Attrs: noinline optnone uwtable
define weak dso_local void @_ZN4Core15DocumentManager20saveModifiedDocumentEPNS_9IDocumentERK7QStringPbS5_S6_P5QListIS2_E() #0 {
  call void @abort()
  ret void
}

; Function Attrs: noinline optnone uwtable
define weak dso_local void @_ZN4Core15DocumentManager20setProjectsDirectoryERKN5Utils8FilePathE() #0 {
  call void @abort()
  ret void
}

; Function Attrs: noinline optnone uwtable
define weak dso_local void @_ZN4Core15DocumentManager20useProjectsDirectoryEv() #0 {
  call void @abort()
  ret void
}

; Function Attrs: noinline optnone uwtable
define weak dso_local void @_ZN4Core15DocumentManager23setUseProjectsDirectoryEb() #0 {
  call void @abort()
  ret void
}

; Function Attrs: noinline optnone uwtable
define weak dso_local void @_ZN4Core15DocumentManager24saveAllModifiedDocumentsERK7QStringPbS3_S4_P5QListIPNS_9IDocumentEE() #0 {
  call void @abort()
  ret void
}

; Function Attrs: noinline optnone uwtable
define weak dso_local void @_ZN4Core15DocumentManager26fileDialogInitialDirectoryEv() #0 {
  call void @abort()
  ret void
}

; Function Attrs: noinline optnone uwtable
define weak dso_local void @_ZN4Core15DocumentManager28getSaveFileNameWithExtensionERK7QStringS3_S3_() #0 {
  call void @abort()
  ret void
}

; Function Attrs: noinline optnone uwtable
define weak dso_local void @_ZN4Core15DocumentManager28notifyFilesChangedInternallyERK11QStringList() #0 {
  call void @abort()
  ret void
}

; Function Attrs: noinline optnone uwtable
define weak dso_local void @_ZN4Core15DocumentManager29setDefaultLocationForNewFilesERK7QString() #0 {
  call void @abort()
  ret void
}

; Function Attrs: noinline optnone uwtable
define weak dso_local void @_ZN4Core15DocumentManager30fileDialogLastVisitedDirectoryEv() #0 {
  call void @abort()
  ret void
}

; Function Attrs: noinline optnone uwtable
define weak dso_local void @_ZN4Core15DocumentManager8instanceEv() #0 {
  call void @abort()
  ret void
}

; Function Attrs: noinline optnone uwtable
define weak dso_local void @_ZN4Core15DocumentManagerD0Ev() #0 {
  call void @abort()
  ret void
}

; Function Attrs: noinline optnone uwtable
define weak dso_local void @_ZN4Core15DocumentManagerD1Ev() #0 {
  call void @abort()
  ret void
}

; Function Attrs: noinline optnone uwtable
define weak dso_local void @_ZN4Core16BaseTextDocument11qt_metacallEN11QMetaObject4CallEiPPv() #0 {
  call void @abort()
  ret void
}

; Function Attrs: noinline optnone uwtable
define weak dso_local void @_ZN4Core16BaseTextDocument11qt_metacastEPKc() #0 {
  call void @abort()
  ret void
}

; Function Attrs: noinline optnone uwtable
define weak dso_local void @_ZN4Core16BaseTextDocument16staticMetaObjectE() #0 {
  call void @abort()
  ret void
}

; Function Attrs: noinline optnone uwtable
define weak dso_local void @_ZN4Core16BaseTextDocument4readERK7QStringP11QStringListPS1_() #0 {
  call void @abort()
  ret void
}

; Function Attrs: noinline optnone uwtable
define weak dso_local void @_ZN4Core16BaseTextDocument4readERK7QStringPS1_S4_() #0 {
  call void @abort()
  ret void
}

; Function Attrs: noinline optnone uwtable
define weak dso_local void @_ZN4Core16BaseTextDocument8setCodecEPK10QTextCodec() #0 {
  call void @abort()
  ret void
}

; Function Attrs: noinline optnone uwtable
define weak dso_local void @_ZN4Core16BaseTextDocumentC2EP7QObject() #0 {
  call void @abort()
  ret void
}

; Function Attrs: noinline optnone uwtable
define weak dso_local void @_ZN4Core16BaseTextDocumentD2Ev() #0 {
  call void @abort()
  ret void
}

; Function Attrs: noinline optnone uwtable
define weak dso_local void @_ZN4Core17FileChangeBlockerC1ERK7QString() #0 {
  call void @abort()
  ret void
}

; Function Attrs: noinline optnone uwtable
define weak dso_local void @_ZN4Core17FileChangeBlockerD1Ev() #0 {
  call void @abort()
  ret void
}

; Function Attrs: noinline optnone uwtable
define weak dso_local void @_ZN4Core18SearchResultWindow11setTabWidthEi() #0 {
  call void @abort()
  ret void
}

; Function Attrs: noinline optnone uwtable
define weak dso_local void @_ZN4Core18SearchResultWindow14startNewSearchERK7QStringS3_S3_NS0_10SearchModeENS0_16PreserveCaseModeES3_() #0 {
  call void @abort()
  ret void
}

; Function Attrs: noinline optnone uwtable
define weak dso_local void @_ZN4Core18SearchResultWindow17setTextEditorFontERK5QFontRK5QHashINS_17SearchResultColor5StyleES5_E() #0 {
  call void @abort()
  ret void
}

; Function Attrs: noinline optnone uwtable
define weak dso_local void @_ZN4Core18SearchResultWindow8instanceEv() #0 {
  call void @abort()
  ret void
}

; Function Attrs: noinline optnone uwtable
define weak dso_local void @_ZN4Core19ReadOnlyFilesDialog18setShowFailWarningEbRK7QString() #0 {
  call void @abort()
  ret void
}

; Function Attrs: noinline optnone uwtable
define weak dso_local void @_ZN4Core19ReadOnlyFilesDialog4execEv() #0 {
  call void @abort()
  ret void
}

; Function Attrs: noinline optnone uwtable
define weak dso_local void @_ZN4Core19ReadOnlyFilesDialogC1ERK5QListIN5Utils8FilePathEEP7QWidget() #0 {
  call void @abort()
  ret void
}

; Function Attrs: noinline optnone uwtable
define weak dso_local void @_ZN4Core19ReadOnlyFilesDialogC1ERKN5Utils8FilePathEP7QWidget() #0 {
  call void @abort()
  ret void
}

; Function Attrs: noinline optnone uwtable
define weak dso_local void @_ZN4Core19ReadOnlyFilesDialogD0Ev() #0 {
  call void @abort()
  ret void
}

; Function Attrs: noinline optnone uwtable
define weak dso_local void @_ZN4Core19ReadOnlyFilesDialogD1Ev() #0 {
  call void @abort()
  ret void
}

; Function Attrs: noinline optnone uwtable
define weak dso_local void @_ZN4Core22FindToolBarPlaceHolderC1EP7QWidgetS2_() #0 {
  call void @abort()
  ret void
}

; Function Attrs: noinline optnone uwtable
define weak dso_local void @_ZN4Core22FindToolBarPlaceHolderD0Ev() #0 {
  call void @abort()
  ret void
}

; Function Attrs: noinline optnone uwtable
define weak dso_local void @_ZN4Core22FindToolBarPlaceHolderD1Ev() #0 {
  call void @abort()
  ret void
}

; Function Attrs: noinline optnone uwtable
define weak dso_local void @_ZN4Core24EditorManagerPlaceHolder9showEventEP10QShowEvent() #0 {
  call void @abort()
  ret void
}

; Function Attrs: noinline optnone uwtable
define weak dso_local void @_ZN4Core24EditorManagerPlaceHolderC1EP7QWidget() #0 {
  call void @abort()
  ret void
}

; Function Attrs: noinline optnone uwtable
define weak dso_local void @_ZN4Core24EditorManagerPlaceHolderD0Ev() #0 {
  call void @abort()
  ret void
}

; Function Attrs: noinline optnone uwtable
define weak dso_local void @_ZN4Core24EditorManagerPlaceHolderD1Ev() #0 {
  call void @abort()
  ret void
}

; Function Attrs: noinline optnone uwtable
define weak dso_local void @_ZN4Core28HighlightScrollBarController13setScrollAreaEP19QAbstractScrollArea() #0 {
  call void @abort()
  ret void
}

; Function Attrs: noinline optnone uwtable
define weak dso_local void @_ZN4Core29textDocumentFlagsForFindFlagsE6QFlagsINS_8FindFlagEE() #0 {
  call void @abort()
  ret void
}

; Function Attrs: noinline optnone uwtable
define weak dso_local void @_ZN4Core4Find10initializeEv() #0 {
  call void @abort()
  ret void
}

; Function Attrs: noinline optnone uwtable
define weak dso_local void @_ZN4Core4Find14openFindDialogEPNS_11IFindFilterE() #0 {
  call void @abort()
  ret void
}

; Function Attrs: noinline optnone uwtable
define weak dso_local void @_ZN4Core4Find15aboutToShutdownEv() #0 {
  call void @abort()
  ret void
}

; Function Attrs: noinline optnone uwtable
define weak dso_local void @_ZN4Core4Find21extensionsInitializedEv() #0 {
  call void @abort()
  ret void
}

; Function Attrs: noinline optnone uwtable
define weak dso_local void @_ZN4Core4Find7destroyEv() #0 {
  call void @abort()
  ret void
}

; Function Attrs: noinline optnone uwtable
define weak dso_local void @_ZN4Core8Internal10MainWindow12saveSettingsEv() #0 {
  call void @abort()
  ret void
}

; Function Attrs: noinline optnone uwtable
define weak dso_local void @_ZN4Core8Internal10MainWindow15aboutToShutdownEv() #0 {
  call void @abort()
  ret void
}

; Function Attrs: noinline optnone uwtable
define weak dso_local void @_ZN4Core8Internal10MainWindow16addContextObjectEPNS_8IContextE() #0 {
  call void @abort()
  ret void
}

; Function Attrs: noinline optnone uwtable
define weak dso_local void @_ZN4Core8Internal10MainWindow16setOverrideColorERK6QColor() #0 {
  call void @abort()
  ret void
}

; Function Attrs: noinline optnone uwtable
define weak dso_local void @_ZN4Core8Internal10MainWindow19addPreCloseListenerERKNSt3__18functionIFbvEEE() #0 {
  call void @abort()
  ret void
}

; Function Attrs: noinline optnone uwtable
define weak dso_local void @_ZN4Core8Internal10MainWindow19removeContextObjectEPNS_8IContextE() #0 {
  call void @abort()
  ret void
}

; Function Attrs: noinline optnone uwtable
define weak dso_local void @_ZN4Core8Internal10MainWindow21extensionsInitializedEv() #0 {
  call void @abort()
  ret void
}

; Function Attrs: noinline optnone uwtable
define weak dso_local void @_ZN4Core8Internal10MainWindow22appendAboutInformationERK7QString() #0 {
  call void @abort()
  ret void
}

; Function Attrs: noinline optnone uwtable
define weak dso_local void @_ZN4Core8Internal10MainWindow24updateAdditionalContextsERKNS_7ContextES4_NS_5ICore15ContextPriorityE() #0 {
  call void @abort()
  ret void
}

; Function Attrs: noinline optnone uwtable
define weak dso_local void @_ZN4Core8Internal10MainWindow4initEv() #0 {
  call void @abort()
  ret void
}

; Function Attrs: noinline optnone uwtable
define weak dso_local void @_ZN4Core8Internal10MainWindow7restartEv() #0 {
  call void @abort()
  ret void
}

; Function Attrs: noinline optnone uwtable
define weak dso_local void @_ZN4Core8Internal10MainWindow9openFilesERK11QStringListNS_5ICore14OpenFilesFlagsERK7QString() #0 {
  call void @abort()
  ret void
}

; Function Attrs: noinline optnone uwtable
define weak dso_local void @_ZN4Core8Internal10MainWindowC1Ev() #0 {
  call void @abort()
  ret void
}

; Function Attrs: noinline optnone uwtable
define weak dso_local void @_ZN4Core8Internal14AddToVcsDialogC1EP7QWidgetRK7QStringRK11QStringListS6_() #0 {
  call void @abort()
  ret void
}

; Function Attrs: noinline optnone uwtable
define weak dso_local void @_ZN4Core8Internal14AddToVcsDialogD0Ev() #0 {
  call void @abort()
  ret void
}

; Function Attrs: noinline optnone uwtable
define weak dso_local void @_ZN4Core8Internal14AddToVcsDialogD1Ev() #0 {
  call void @abort()
  ret void
}

; Function Attrs: noinline optnone uwtable
define weak dso_local void @_ZN4Core8Internal16MimeTypeSettings5applyEv() #0 {
  call void @abort()
  ret void
}

; Function Attrs: noinline optnone uwtable
define weak dso_local void @_ZN4Core8Internal16MimeTypeSettings6finishEv() #0 {
  call void @abort()
  ret void
}

; Function Attrs: noinline optnone uwtable
define weak dso_local void @_ZN4Core8Internal16MimeTypeSettings6widgetEv() #0 {
  call void @abort()
  ret void
}

; Function Attrs: noinline optnone uwtable
define weak dso_local void @_ZN4Core8Internal16MimeTypeSettingsD0Ev() #0 {
  call void @abort()
  ret void
}

; Function Attrs: noinline optnone uwtable
define weak dso_local void @_ZN4Core8Internal16MimeTypeSettingsD1Ev() #0 {
  call void @abort()
  ret void
}

; Function Attrs: noinline optnone uwtable
define weak dso_local void @_ZN4Core8Internal20EditorManagerPrivate10openEditorEPNS0_10EditorViewERK7QStringN5Utils2IdE6QFlagsINS_13EditorManager14OpenEditorFlagEEPb() #0 {
  call void @abort()
  ret void
}

; Function Attrs: noinline optnone uwtable
define weak dso_local void @_ZN4Core8Internal20EditorManagerPrivate12activateViewEPNS0_10EditorViewE() #0 {
  call void @abort()
  ret void
}

; Function Attrs: noinline optnone uwtable
define weak dso_local void @_ZN4Core8Internal20EditorManagerPrivate12openEditorAtEPNS0_10EditorViewERK7QStringiiN5Utils2IdE6QFlagsINS_13EditorManager14OpenEditorFlagEEPb() #0 {
  call void @abort()
  ret void
}

; Function Attrs: noinline optnone uwtable
define weak dso_local void @_ZN4Core8Internal20EditorManagerPrivate12saveDocumentEPNS_9IDocumentE() #0 {
  call void @abort()
  ret void
}

; Function Attrs: noinline optnone uwtable
define weak dso_local void @_ZN4Core8Internal20EditorManagerPrivate13deleteEditorsERK5QListIPNS_7IEditorEE() #0 {
  call void @abort()
  ret void
}

; Function Attrs: noinline optnone uwtable
define weak dso_local void @_ZN4Core8Internal20EditorManagerPrivate13gotoNextSplitEv() #0 {
  call void @abort()
  ret void
}

; Function Attrs: noinline optnone uwtable
define weak dso_local void @_ZN4Core8Internal20EditorManagerPrivate13updateActionsEv() #0 {
  call void @abort()
  ret void
}

; Function Attrs: noinline optnone uwtable
define weak dso_local void @_ZN4Core8Internal20EditorManagerPrivate14saveDocumentAsEPNS_9IDocumentE() #0 {
  call void @abort()
  ret void
}

; Function Attrs: noinline optnone uwtable
define weak dso_local void @_ZN4Core8Internal20EditorManagerPrivate14setCurrentViewEPNS0_10EditorViewE() #0 {
  call void @abort()
  ret void
}

; Function Attrs: noinline optnone uwtable
define weak dso_local void @_ZN4Core8Internal20EditorManagerPrivate14splitNewWindowEPNS0_10EditorViewE() #0 {
  call void @abort()
  ret void
}

; Function Attrs: noinline optnone uwtable
define weak dso_local void @_ZN4Core8Internal20EditorManagerPrivate15duplicateEditorEPNS_7IEditorE() #0 {
  call void @abort()
  ret void
}

; Function Attrs: noinline optnone uwtable
define weak dso_local void @_ZN4Core8Internal20EditorManagerPrivate15placeholderTextEv() #0 {
  call void @abort()
  ret void
}

; Function Attrs: noinline optnone uwtable
define weak dso_local void @_ZN4Core8Internal20EditorManagerPrivate15removeAllSplitsEv() #0 {
  call void @abort()
  ret void
}

; Function Attrs: noinline optnone uwtable
define weak dso_local void @_ZN4Core8Internal20EditorManagerPrivate16makeFileWritableEPNS_9IDocumentE() #0 {
  call void @abort()
  ret void
}

; Function Attrs: noinline optnone uwtable
define weak dso_local void @_ZN4Core8Internal20EditorManagerPrivate16setCurrentEditorEPNS_7IEditorEb() #0 {
  call void @abort()
  ret void
}

; Function Attrs: noinline optnone uwtable
define weak dso_local void @_ZN4Core8Internal20EditorManagerPrivate17currentEditorViewEv() #0 {
  call void @abort()
  ret void
}

; Function Attrs: noinline optnone uwtable
define weak dso_local void @_ZN4Core8Internal20EditorManagerPrivate17gotoPreviousSplitEv() #0 {
  call void @abort()
  ret void
}

; Function Attrs: noinline optnone uwtable
define weak dso_local void @_ZN4Core8Internal20EditorManagerPrivate19editorAreaDestroyedEP7QObject() #0 {
  call void @abort()
  ret void
}

; Function Attrs: noinline optnone uwtable
define weak dso_local void @_ZN4Core8Internal20EditorManagerPrivate21closeEditorOrDocumentEPNS_7IEditorE() #0 {
  call void @abort()
  ret void
}

; Function Attrs: noinline optnone uwtable
define weak dso_local void @_ZN4Core8Internal20EditorManagerPrivate22activateEditorForEntryEPNS0_10EditorViewEPNS_13DocumentModel5EntryE6QFlagsINS_13EditorManager14OpenEditorFlagEE() #0 {
  call void @abort()
  ret void
}

; Function Attrs: noinline optnone uwtable
define weak dso_local void @_ZN4Core8Internal20EditorManagerPrivate25activateEditorForDocumentEPNS0_10EditorViewEPNS_9IDocumentE6QFlagsINS_13EditorManager14OpenEditorFlagEE() #0 {
  call void @abort()
  ret void
}

; Function Attrs: noinline optnone uwtable
define weak dso_local void @_ZN4Core8Internal20EditorManagerPrivate25handleDocumentStateChangeEv() #0 {
  call void @abort()
  ret void
}

; Function Attrs: noinline optnone uwtable
define weak dso_local void @_ZN4Core8Internal20EditorManagerPrivate28updateWindowTitleForDocumentEPNS_9IDocumentEP7QWidget() #0 {
  call void @abort()
  ret void
}

; Function Attrs: noinline optnone uwtable
define weak dso_local void @_ZN4Core8Internal20EditorManagerPrivate5splitEN2Qt11OrientationE() #0 {
  call void @abort()
  ret void
}

; Function Attrs: noinline optnone uwtable
define weak dso_local void @_ZN4Core8Internal20EditorManagerPrivate8instanceEv() #0 {
  call void @abort()
  ret void
}

; Function Attrs: noinline optnone uwtable
define weak dso_local void @_ZN4Core8Internal20EditorManagerPrivate9closeViewEPNS0_10EditorViewE() #0 {
  call void @abort()
  ret void
}

; Function Attrs: noinline optnone uwtable
define weak dso_local void @_ZN4Core8Internal20EditorManagerPrivate9emptyViewEPNS0_10EditorViewE() #0 {
  call void @abort()
  ret void
}

; Function Attrs: noinline optnone uwtable
define weak dso_local void @_ZN4Core8Internal20EditorManagerPrivateD0Ev() #0 {
  call void @abort()
  ret void
}

; Function Attrs: noinline optnone uwtable
define weak dso_local void @_ZN4Core8Internal20EditorManagerPrivateD1Ev() #0 {
  call void @abort()
  ret void
}

; Function Attrs: noinline optnone uwtable
define weak dso_local void @_ZN4Core8Internal21executeSettingsDialogEP7QWidgetN5Utils2IdE() #0 {
  call void @abort()
  ret void
}

; Function Attrs: noinline optnone uwtable
define weak dso_local void @_ZN4Core8Internal22ProgressManagerPrivate12initInternalEv() #0 {
  call void @abort()
  ret void
}

; Function Attrs: noinline optnone uwtable
define weak dso_local void @_ZN4Core8Internal22ProgressManagerPrivate21doSetApplicationLabelERK7QString() #0 {
  call void @abort()
  ret void
}

; Function Attrs: noinline optnone uwtable
define weak dso_local void @_ZN4Core8Internal22ProgressManagerPrivate27setApplicationProgressRangeEii() #0 {
  call void @abort()
  ret void
}

; Function Attrs: noinline optnone uwtable
define weak dso_local void @_ZN4Core8Internal22ProgressManagerPrivate27setApplicationProgressValueEi() #0 {
  call void @abort()
  ret void
}

; Function Attrs: noinline optnone uwtable
define weak dso_local void @_ZN4Core8Internal22ProgressManagerPrivate29setApplicationProgressVisibleEb() #0 {
  call void @abort()
  ret void
}

; Function Attrs: noinline optnone uwtable
define weak dso_local void @_ZN4Core8Internal22ProgressManagerPrivate7cleanupEv() #0 {
  call void @abort()
  ret void
}

; Function Attrs: noinline optnone uwtable
define weak dso_local void @_ZN4Core8Internal6Action12setAttributeENS_7Command16CommandAttributeE() #0 {
  call void @abort()
  ret void
}

; Function Attrs: noinline optnone uwtable
define weak dso_local void @_ZN4Core8Internal6Action14setDescriptionERK7QString() #0 {
  call void @abort()
  ret void
}

; Function Attrs: noinline optnone uwtable
define weak dso_local void @_ZN4Core8Internal6Action15removeAttributeENS_7Command16CommandAttributeE() #0 {
  call void @abort()
  ret void
}

; Function Attrs: noinline optnone uwtable
define weak dso_local void @_ZN4Core8Internal6Action15setKeySequencesERK5QListI12QKeySequenceE() #0 {
  call void @abort()
  ret void
}

; Function Attrs: noinline optnone uwtable
define weak dso_local void @_ZN4Core8Internal6Action15setTouchBarIconERK5QIcon() #0 {
  call void @abort()
  ret void
}

; Function Attrs: noinline optnone uwtable
define weak dso_local void @_ZN4Core8Internal6Action15setTouchBarTextERK7QString() #0 {
  call void @abort()
  ret void
}

; Function Attrs: noinline optnone uwtable
define weak dso_local void @_ZN4Core8Internal6Action17addOverrideActionEP7QActionRKNS_7ContextEb() #0 {
  call void @abort()
  ret void
}

; Function Attrs: noinline optnone uwtable
define weak dso_local void @_ZN4Core8Internal6Action17setCurrentContextERKNS_7ContextE() #0 {
  call void @abort()
  ret void
}

; Function Attrs: noinline optnone uwtable
define weak dso_local void @_ZN4Core8Internal6Action20removeOverrideActionEP7QAction() #0 {
  call void @abort()
  ret void
}

; Function Attrs: noinline optnone uwtable
define weak dso_local void @_ZN4Core8Internal6Action21setDefaultKeySequenceERK12QKeySequence() #0 {
  call void @abort()
  ret void
}

; Function Attrs: noinline optnone uwtable
define weak dso_local void @_ZN4Core8Internal6Action22setDefaultKeySequencesERK5QListI12QKeySequenceE() #0 {
  call void @abort()
  ret void
}

; Function Attrs: noinline optnone uwtable
define weak dso_local void @_ZN4Core8Internal6ActionC1EN5Utils2IdE() #0 {
  call void @abort()
  ret void
}

; Function Attrs: noinline optnone uwtable
define weak dso_local void @_ZN4Core8Internal7Locator10initializeEv() #0 {
  call void @abort()
  ret void
}

; Function Attrs: noinline optnone uwtable
define weak dso_local void @_ZN4Core8Internal7Locator17delayedInitializeEv() #0 {
  call void @abort()
  ret void
}

; Function Attrs: noinline optnone uwtable
define weak dso_local void @_ZN4Core8Internal7Locator21extensionsInitializedEv() #0 {
  call void @abort()
  ret void
}

; Function Attrs: noinline optnone uwtable
define weak dso_local void @_ZN4Core8Internal7LocatorC1Ev() #0 {
  call void @abort()
  ret void
}

; Function Attrs: noinline optnone uwtable
define weak dso_local void @_ZN4Core8Internal9NewDialog10showDialogEv() #0 {
  call void @abort()
  ret void
}

; Function Attrs: noinline optnone uwtable
define weak dso_local void @_ZN4Core8Internal9NewDialog13currentDialogEv() #0 {
  call void @abort()
  ret void
}

; Function Attrs: noinline optnone uwtable
define weak dso_local void @_ZN4Core8Internal9NewDialog18setWizardFactoriesE5QListIPNS_14IWizardFactoryEERK7QStringRK4QMapIS6_8QVariantE() #0 {
  call void @abort()
  ret void
}

; Function Attrs: noinline optnone uwtable
define weak dso_local void @_ZN4Core8Internal9NewDialog5eventEP6QEvent() #0 {
  call void @abort()
  ret void
}

; Function Attrs: noinline optnone uwtable
define weak dso_local void @_ZN4Core8Internal9NewDialog6acceptEv() #0 {
  call void @abort()
  ret void
}

; Function Attrs: noinline optnone uwtable
define weak dso_local void @_ZN4Core8Internal9NewDialog6rejectEv() #0 {
  call void @abort()
  ret void
}

; Function Attrs: noinline optnone uwtable
define weak dso_local void @_ZN4Core8Internal9NewDialogC1EP7QWidget() #0 {
  call void @abort()
  ret void
}

; Function Attrs: noinline optnone uwtable
define weak dso_local void @_ZN4Core8Internal9NewDialogD0Ev() #0 {
  call void @abort()
  ret void
}

; Function Attrs: noinline optnone uwtable
define weak dso_local void @_ZN4Core8Internal9NewDialogD1Ev() #0 {
  call void @abort()
  ret void
}

; Function Attrs: noinline optnone uwtable
define weak dso_local void @_ZN4Core9FileUtils10removeFileERK7QStringb() #0 {
  call void @abort()
  ret void
}

; Function Attrs: noinline optnone uwtable
define weak dso_local void @_ZN4Core9FileUtils12openTerminalERK7QString() #0 {
  call void @abort()
  ret void
}

; Function Attrs: noinline optnone uwtable
define weak dso_local void @_ZN4Core9FileUtils12openTerminalERK7QStringRKN5Utils11EnvironmentE() #0 {
  call void @abort()
  ret void
}

; Function Attrs: noinline optnone uwtable
define weak dso_local void @_ZN4Core9FileUtils20showInGraphicalShellEP7QWidgetRK7QString() #0 {
  call void @abort()
  ret void
}

; Function Attrs: noinline optnone uwtable
define weak dso_local void @_ZN4Core9FileUtils21msgTerminalHereActionEv() #0 {
  call void @abort()
  ret void
}

; Function Attrs: noinline optnone uwtable
define weak dso_local void @_ZN4Core9FileUtils23msgGraphicalShellActionEv() #0 {
  call void @abort()
  ret void
}

; Function Attrs: noinline optnone uwtable
define weak dso_local void @_ZN4QSsh20SshKeyCreationDialogD0Ev() #0 {
  call void @abort()
  ret void
}

; Function Attrs: noinline optnone uwtable
define weak dso_local void @_ZN4QSsh20SshKeyCreationDialogD1Ev() #0 {
  call void @abort()
  ret void
}

; Function Attrs: noinline optnone uwtable
define weak dso_local void @_ZN7ProFileD1Ev() #0 {
  call void @abort()
  ret void
}

; Function Attrs: noinline optnone uwtable
define weak dso_local void @_ZN7VcsBase11CleanDialog6acceptEv() #0 {
  call void @abort()
  ret void
}

; Function Attrs: noinline optnone uwtable
define weak dso_local void @_ZN7VcsBase11CleanDialogD0Ev() #0 {
  call void @abort()
  ret void
}

; Function Attrs: noinline optnone uwtable
define weak dso_local void @_ZN7VcsBase11CleanDialogD1Ev() #0 {
  call void @abort()
  ret void
}

; Function Attrs: noinline optnone uwtable
define weak dso_local void @_ZN7VcsBase18SubmitEditorWidget11setLineWrapEb() #0 {
  call void @abort()
  ret void
}

; Function Attrs: noinline optnone uwtable
define weak dso_local void @_ZN7VcsBase18SubmitEditorWidget12setFileModelEPNS_15SubmitFileModelE() #0 {
  call void @abort()
  ret void
}

; Function Attrs: noinline optnone uwtable
define weak dso_local void @_ZN7VcsBase18SubmitEditorWidget15registerActionsEP7QActionS2_S2_S2_() #0 {
  call void @abort()
  ret void
}

; Function Attrs: noinline optnone uwtable
define weak dso_local void @_ZN7VcsBase18SubmitEditorWidget15setSelectedRowsERK5QListIiE() #0 {
  call void @abort()
  ret void
}

; Function Attrs: noinline optnone uwtable
define weak dso_local void @_ZN7VcsBase18SubmitEditorWidget16setLineWrapWidthEi() #0 {
  call void @abort()
  ret void
}

; Function Attrs: noinline optnone uwtable
define weak dso_local void @_ZN7VcsBase18SubmitEditorWidget18setDescriptionTextERK7QString() #0 {
  call void @abort()
  ret void
}

; Function Attrs: noinline optnone uwtable
define weak dso_local void @_ZN7VcsBase18SubmitEditorWidget18updateSubmitActionEv() #0 {
  call void @abort()
  ret void
}

; Function Attrs: noinline optnone uwtable
define weak dso_local void @_ZN7VcsBase18SubmitEditorWidget20addSubmitFieldWidgetEPNS_17SubmitFieldWidgetE() #0 {
  call void @abort()
  ret void
}

; Function Attrs: noinline optnone uwtable
define weak dso_local void @_ZN7VcsBase18SubmitEditorWidget22descriptionTextChangedEv() #0 {
  call void @abort()
  ret void
}

; Function Attrs: noinline optnone uwtable
define weak dso_local void @_ZN7VcsBase18SubmitEditorWidget23setDescriptionMandatoryEb() #0 {
  call void @abort()
  ret void
}

; Function Attrs: noinline optnone uwtable
define weak dso_local void @_ZN7VcsBase18SubmitEditorWidget23setEmptyFileListEnabledEb() #0 {
  call void @abort()
  ret void
}

; Function Attrs: noinline optnone uwtable
define weak dso_local void @_ZN7VcsBase18SubmitEditorWidget24setFileListSelectionModeEN17QAbstractItemView13SelectionModeE() #0 {
  call void @abort()
  ret void
}

; Function Attrs: noinline optnone uwtable
define weak dso_local void @_ZN7VcsBase18SubmitEditorWidget35addDescriptionEditContextMenuActionEP7QAction() #0 {
  call void @abort()
  ret void
}

; Function Attrs: noinline optnone uwtable
define weak dso_local void @_ZN7VcsBase18SubmitEditorWidgetD0Ev() #0 {
  call void @abort()
  ret void
}

; Function Attrs: noinline optnone uwtable
define weak dso_local void @_ZN7VcsBase18SubmitEditorWidgetD1Ev() #0 {
  call void @abort()
  ret void
}

; Function Attrs: noinline optnone uwtable
define weak dso_local void @_ZN7VcsBase8Internal14NickNameDialog11createModelEP7QObject() #0 {
  call void @abort()
  ret void
}

; Function Attrs: noinline optnone uwtable
define weak dso_local void @_ZN7VcsBase8Internal14NickNameDialog12nickNameListEPK18QStandardItemModel() #0 {
  call void @abort()
  ret void
}

; Function Attrs: noinline optnone uwtable
define weak dso_local void @_ZN7VcsBase8Internal14NickNameDialog28populateModelFromMailCapFileERK7QStringP18QStandardItemModelPS2_() #0 {
  call void @abort()
  ret void
}

; Function Attrs: noinline optnone uwtable
define weak dso_local void @_ZN7VcsBase8Internal14NickNameDialogC1EP18QStandardItemModelP7QWidget() #0 {
  call void @abort()
  ret void
}

; Function Attrs: noinline optnone uwtable
define weak dso_local void @_ZN7VcsBase8Internal14NickNameDialogD0Ev() #0 {
  call void @abort()
  ret void
}

; Function Attrs: noinline optnone uwtable
define weak dso_local void @_ZN7VcsBase8Internal14NickNameDialogD1Ev() #0 {
  call void @abort()
  ret void
}

; Function Attrs: noinline optnone uwtable
define weak dso_local void @_ZN7VcsBase8Internal17CommonOptionsPage5applyEv() #0 {
  call void @abort()
  ret void
}

; Function Attrs: noinline optnone uwtable
define weak dso_local void @_ZN7VcsBase8Internal17CommonOptionsPage6finishEv() #0 {
  call void @abort()
  ret void
}

; Function Attrs: noinline optnone uwtable
define weak dso_local void @_ZN7VcsBase8Internal17CommonOptionsPage6widgetEv() #0 {
  call void @abort()
  ret void
}

; Function Attrs: noinline optnone uwtable
define weak dso_local void @_ZN7VcsBase8Internal17CommonOptionsPageC1Ev() #0 {
  call void @abort()
  ret void
}

; Function Attrs: noinline optnone uwtable
define weak dso_local void @_ZN7VcsBase8Internal20CommonSettingsWidgetD0Ev() #0 {
  call void @abort()
  ret void
}

; Function Attrs: noinline optnone uwtable
define weak dso_local void @_ZN7VcsBase8Internal20CommonSettingsWidgetD1Ev() #0 {
  call void @abort()
  ret void
}

; Function Attrs: noinline optnone uwtable
define weak dso_local void @_ZN8CppTools19SemanticHighlighter21setHighlightingRunnerENSt3__18functionIF7QFutureIN10TextEditor18HighlightingResultEEvEEE() #0 {
  call void @abort()
  ret void
}

; Function Attrs: noinline optnone uwtable
define weak dso_local void @_ZN8CppTools19SemanticHighlighter31updateFormatMapFromFontSettingsEv() #0 {
  call void @abort()
  ret void
}

; Function Attrs: noinline optnone uwtable
define weak dso_local void @_ZN8CppTools19SemanticHighlighter3runEv() #0 {
  call void @abort()
  ret void
}

; Function Attrs: noinline optnone uwtable
define weak dso_local void @_ZN8CppTools19SemanticHighlighterC1EPN10TextEditor12TextDocumentE() #0 {
  call void @abort()
  ret void
}

; Function Attrs: noinline optnone uwtable
define weak dso_local void @_ZN8CppTools19SemanticHighlighterD0Ev() #0 {
  call void @abort()
  ret void
}

; Function Attrs: noinline optnone uwtable
define weak dso_local void @_ZN8CppTools19SemanticHighlighterD1Ev() #0 {
  call void @abort()
  ret void
}

; Function Attrs: noinline optnone uwtable
define weak dso_local void @_ZN8CppTools28ClangDiagnosticConfigsWidget4syncEv() #0 {
  call void @abort()
  ret void
}

; Function Attrs: noinline optnone uwtable
define weak dso_local void @_ZN8CppTools28ClangDiagnosticConfigsWidgetD0Ev() #0 {
  call void @abort()
  ret void
}

; Function Attrs: noinline optnone uwtable
define weak dso_local void @_ZN8CppTools28ClangDiagnosticConfigsWidgetD1Ev() #0 {
  call void @abort()
  ret void
}

; Function Attrs: noinline optnone uwtable
define weak dso_local void @_ZN8CppTools8Internal15CppFileSettings12fromSettingsEP9QSettings() #0 {
  call void @abort()
  ret void
}

; Function Attrs: noinline optnone uwtable
define weak dso_local void @_ZN8CppTools8Internal15CppFileSettings15licenseTemplateEv() #0 {
  call void @abort()
  ret void
}

; Function Attrs: noinline optnone uwtable
define weak dso_local void @_ZN8CppTools8Internal15CppFileSettings21applySuffixesToMimeDBEv() #0 {
  call void @abort()
  ret void
}

; Function Attrs: noinline optnone uwtable
define weak dso_local void @_ZN8CppTools8Internal19CppFileSettingsPageC1EPNS0_15CppFileSettingsE() #0 {
  call void @abort()
  ret void
}

; Function Attrs: noinline optnone uwtable
define weak dso_local void @_ZN8CppTools8Internal24CppCodeModelSettingsPageC1EPNS_20CppCodeModelSettingsE() #0 {
  call void @abort()
  ret void
}

; Function Attrs: noinline optnone uwtable
define weak dso_local void @_ZN8CppTools8Internal24CppCodeStyleSettingsPageC1Ev() #0 {
  call void @abort()
  ret void
}

; Function Attrs: noinline optnone uwtable
define weak dso_local void @_ZN8CppTools8Internal29CppCodeStylePreferencesWidget12setCodeStyleEPNS_23CppCodeStylePreferencesE() #0 {
  call void @abort()
  ret void
}

; Function Attrs: noinline optnone uwtable
define weak dso_local void @_ZN8CppTools8Internal29CppCodeStylePreferencesWidgetC1EP7QWidget() #0 {
  call void @abort()
  ret void
}

; Function Attrs: noinline optnone uwtable
define weak dso_local void @_ZN8CppTools8Internal29CppCodeStylePreferencesWidgetD0Ev() #0 {
  call void @abort()
  ret void
}

; Function Attrs: noinline optnone uwtable
define weak dso_local void @_ZN8CppTools8Internal29CppCodeStylePreferencesWidgetD1Ev() #0 {
  call void @abort()
  ret void
}

; Function Attrs: noinline optnone uwtable
define weak dso_local void @_ZN8Debugger8Internal15createGdbEngineEv() #0 {
  call void @abort()
  ret void
}

; Function Attrs: noinline optnone uwtable
define weak dso_local void @_ZN8Debugger8Internal15createPdbEngineEv() #0 {
  call void @abort()
  ret void
}

; Function Attrs: noinline optnone uwtable
define weak dso_local void @_ZN8Debugger8Internal15createQmlEngineEv() #0 {
  call void @abort()
  ret void
}

; Function Attrs: noinline optnone uwtable
define weak dso_local void @_ZN8Debugger8Internal16createUvscEngineEv() #0 {
  call void @abort()
  ret void
}

; Function Attrs: noinline optnone uwtable
define weak dso_local void @_ZN8Debugger8Internal17SymbolPathsDialog20useCommonSymbolPathsERbS2_R7QString() #0 {
  call void @abort()
  ret void
}

; Function Attrs: noinline optnone uwtable
define weak dso_local void @_ZN8Debugger8Internal17SymbolPathsDialogD0Ev() #0 {
  call void @abort()
  ret void
}

; Function Attrs: noinline optnone uwtable
define weak dso_local void @_ZN8Debugger8Internal17SymbolPathsDialogD1Ev() #0 {
  call void @abort()
  ret void
}

; Function Attrs: noinline optnone uwtable
define weak dso_local void @_ZN8Debugger8Internal17addCdbOptionPagesEP5QListIPN4Core12IOptionsPageEE() #0 {
  call void @abort()
  ret void
}

; Function Attrs: noinline optnone uwtable
define weak dso_local void @_ZN8Debugger8Internal17addGdbOptionPagesEP5QListIPN4Core12IOptionsPageEE() #0 {
  call void @abort()
  ret void
}

; Function Attrs: noinline optnone uwtable
define weak dso_local void @_ZN8Debugger8Internal7Console9printItemENS0_11ConsoleItem8ItemTypeERK7QString() #0 {
  call void @abort()
  ret void
}

; Function Attrs: noinline nounwind optnone uwtable
define dso_local zeroext i1 @_ZN8Debugger8Internal7ConsoleC1Ev() #2 {
  ret i1 false
}

; Function Attrs: noinline nounwind optnone uwtable
define dso_local zeroext i1 @_ZN8Debugger8Internal7ConsoleD1Ev() #2 {
  ret i1 false
}

; Function Attrs: noinline optnone uwtable
define weak dso_local void @_ZN8Debugger8Internal8CoreInfo26readExecutableNameFromCoreERKN15ProjectExplorer8RunnableERK7QString() #0 {
  call void @abort()
  ret void
}

; Function Attrs: noinline optnone uwtable
define weak dso_local void @_ZN8Debugger8Internal9CdbEngine20extensionLibraryNameEb() #0 {
  call void @abort()
  ret void
}

; Function Attrs: noinline optnone uwtable
define weak dso_local void @_ZN9CppEditor8Internal21CppPreProcessorDialog4execEv() #0 {
  call void @abort()
  ret void
}

; Function Attrs: noinline optnone uwtable
define weak dso_local void @_ZN9CppEditor8Internal21CppPreProcessorDialogC1ERK7QStringP7QWidget() #0 {
  call void @abort()
  ret void
}

; Function Attrs: noinline optnone uwtable
define weak dso_local void @_ZN9CppEditor8Internal21CppPreProcessorDialogD0Ev() #0 {
  call void @abort()
  ret void
}

; Function Attrs: noinline optnone uwtable
define weak dso_local void @_ZN9CppEditor8Internal21CppPreProcessorDialogD1Ev() #0 {
  call void @abort()
  ret void
}

; Function Attrs: noinline optnone uwtable
define weak dso_local void @_ZN9CppEditor8Internal25CppQuickFixSettingsWidget12loadSettingsEPNS_19CppQuickFixSettingsE() #0 {
  call void @abort()
  ret void
}

; Function Attrs: noinline optnone uwtable
define weak dso_local void @_ZN9CppEditor8Internal25CppQuickFixSettingsWidget12saveSettingsEPNS_19CppQuickFixSettingsE() #0 {
  call void @abort()
  ret void
}

; Function Attrs: noinline optnone uwtable
define weak dso_local void @_ZN9CppEditor8Internal25CppQuickFixSettingsWidget24currentCustomItemChangedEP15QListWidgetItemS3_() #0 {
  call void @abort()
  ret void
}

; Function Attrs: noinline optnone uwtable
define weak dso_local void @_ZN9CppEditor8Internal25CppQuickFixSettingsWidgetC1EP7QWidget() #0 {
  call void @abort()
  ret void
}

; Function Attrs: noinline optnone uwtable
define weak dso_local void @_ZN9CppEditor8Internal25CppQuickFixSettingsWidgetD0Ev() #0 {
  call void @abort()
  ret void
}

; Function Attrs: noinline optnone uwtable
define weak dso_local void @_ZN9CppEditor8Internal25CppQuickFixSettingsWidgetD1Ev() #0 {
  call void @abort()
  ret void
}

; Function Attrs: noinline optnone uwtable
define weak dso_local void @_ZN9CppEditor8Internal27CppCodeModelInspectorDialog5eventEP6QEvent() #0 {
  call void @abort()
  ret void
}

; Function Attrs: noinline optnone uwtable
define weak dso_local void @_ZN9CppEditor8Internal27CppCodeModelInspectorDialogC1EP7QWidget() #0 {
  call void @abort()
  ret void
}

; Function Attrs: noinline optnone uwtable
define weak dso_local void @_ZN9CppEditor8Internal27CppCodeModelInspectorDialogD0Ev() #0 {
  call void @abort()
  ret void
}

; Function Attrs: noinline optnone uwtable
define weak dso_local void @_ZN9CppEditor8Internal27CppCodeModelInspectorDialogD1Ev() #0 {
  call void @abort()
  ret void
}

; Function Attrs: noinline optnone uwtable
define weak dso_local void @_ZN9CppEditor8Internal32CppQuickFixProjectSettingsWidget18currentItemChangedEv() #0 {
  call void @abort()
  ret void
}

; Function Attrs: noinline optnone uwtable
define weak dso_local void @_ZN9CppEditor8Internal32CppQuickFixProjectSettingsWidget19buttonCustomClickedEv() #0 {
  call void @abort()
  ret void
}

; Function Attrs: noinline optnone uwtable
define weak dso_local void @_ZN9CppEditor8Internal32CppQuickFixProjectSettingsWidgetC1EPN15ProjectExplorer7ProjectEP7QWidget() #0 {
  call void @abort()
  ret void
}

; Function Attrs: noinline optnone uwtable
define weak dso_local void @_ZN9CppEditor8Internal32CppQuickFixProjectSettingsWidgetD0Ev() #0 {
  call void @abort()
  ret void
}

; Function Attrs: noinline optnone uwtable
define weak dso_local void @_ZN9CppEditor8Internal32CppQuickFixProjectSettingsWidgetD1Ev() #0 {
  call void @abort()
  ret void
}

; Function Attrs: noinline optnone uwtable
define weak dso_local void @_ZN9QtSupport13BaseQtVersion19createMacroExpanderERKNSt3__18functionIFPKS0_vEEE() #0 {
  call void @abort()
  ret void
}

; Function Attrs: noinline optnone uwtable
define weak dso_local void @_ZN9QtSupport13BaseQtVersion23isQmlDebuggingSupportedEPKN15ProjectExplorer3KitEP7QString() #0 {
  call void @abort()
  ret void
}

; Function Attrs: noinline optnone uwtable
define weak dso_local void @_ZN9QtSupport13BaseQtVersion26isQtQuickCompilerSupportedEPKN15ProjectExplorer3KitEP7QString() #0 {
  call void @abort()
  ret void
}

; Function Attrs: noinline optnone uwtable
define weak dso_local void @_ZN9QtSupport15QtVersionNumberC1Eiii() #0 {
  call void @abort()
  ret void
}

; Function Attrs: noinline optnone uwtable
define weak dso_local void @_ZN9QtSupport16QtVersionFactory10canRestoreERK7QString() #0 {
  call void @abort()
  ret void
}

; Function Attrs: noinline optnone uwtable
define weak dso_local void @_ZN9QtSupport16QtVersionFactory21allQtVersionFactoriesEv() #0 {
  call void @abort()
  ret void
}

; Function Attrs: noinline optnone uwtable
define weak dso_local void @_ZN9QtSupport16QtVersionFactory28createQtVersionFromQMakePathERKN5Utils8FilePathEbRK7QStringPS5_() #0 {
  call void @abort()
  ret void
}

; Function Attrs: noinline optnone uwtable
define weak dso_local void @_ZN9QtSupport16QtVersionFactory7restoreERK7QStringRK4QMapIS1_8QVariantE() #0 {
  call void @abort()
  ret void
}

; Function Attrs: noinline optnone uwtable
define weak dso_local void @_ZN9QtSupport16QtVersionFactoryD2Ev() #0 {
  call void @abort()
  ret void
}

; Function Attrs: noinline optnone uwtable
define weak dso_local void @_ZN9QtSupport8Internal13QtOptionsPage10linkWithQtEv() #0 {
  call void @abort()
  ret void
}

; Function Attrs: noinline optnone uwtable
define weak dso_local void @_ZN9QtSupport8Internal13QtOptionsPage13canLinkWithQtEv() #0 {
  call void @abort()
  ret void
}

; Function Attrs: noinline optnone uwtable
define weak dso_local void @_ZN9QtSupport8Internal13QtOptionsPage14isLinkedWithQtEv() #0 {
  call void @abort()
  ret void
}

; Function Attrs: noinline optnone uwtable
define weak dso_local void @_ZN9QtSupport8Internal13QtOptionsPageC1Ev() #0 {
  call void @abort()
  ret void
}

; Function Attrs: noinline optnone uwtable
define weak dso_local void @_ZN9QtSupport8Internal15ExampleSetModel16selectExampleSetEi() #0 {
  call void @abort()
  ret void
}

; Function Attrs: noinline optnone uwtable
define weak dso_local void @_ZN9QtSupport8Internal17ExamplesListModelC1EP7QObject() #0 {
  call void @abort()
  ret void
}

; Function Attrs: noinline optnone uwtable
define weak dso_local void @_ZN9QtSupport8Internal19CodeGenSettingsPageC1Ev() #0 {
  call void @abort()
  ret void
}

; Function Attrs: noinline optnone uwtable
define weak dso_local void @_ZN9QtSupport8Internal23DesktopQtVersionFactoryC1Ev() #0 {
  call void @abort()
  ret void
}

; Function Attrs: noinline optnone uwtable
define weak dso_local void @_ZN9QtSupport8Internal23ExamplesListModelFilterC1EPNS0_17ExamplesListModelEbP7QObject() #0 {
  call void @abort()
  ret void
}

; Function Attrs: noinline optnone uwtable
define weak dso_local void @_ZN9QtSupport8Internal29EmbeddedLinuxQtVersionFactoryC1Ev() #0 {
  call void @abort()
  ret void
}

; Function Attrs: noinline optnone uwtable
define weak dso_local void @_ZNK10QmlJSTools12SemanticInfo10scopeChainERK5QListIPN5QmlJS3AST4NodeEE() #0 {
  call void @abort()
  ret void
}

; Function Attrs: noinline optnone uwtable
define weak dso_local void @_ZNK10QmlJSTools12SemanticInfo27declaringMemberNoPropertiesEi() #0 {
  call void @abort()
  ret void
}

; Function Attrs: noinline optnone uwtable
define weak dso_local void @_ZNK10QmlJSTools12SemanticInfo7astPathEi() #0 {
  call void @abort()
  ret void
}

; Function Attrs: noinline optnone uwtable
define weak dso_local void @_ZNK10QmlJSTools12SemanticInfo7isValidEv() #0 {
  call void @abort()
  ret void
}

; Function Attrs: noinline optnone uwtable
define weak dso_local void @_ZNK10QmlJSTools12SemanticInfo7rangeAtEi() #0 {
  call void @abort()
  ret void
}

; Function Attrs: noinline optnone uwtable
define weak dso_local void @_ZNK10QmlJSTools12SemanticInfo8revisionEv() #0 {
  call void @abort()
  ret void
}

; Function Attrs: noinline optnone uwtable
define weak dso_local void @_ZNK10QmlJSTools12SemanticInfo9astNodeAtEi() #0 {
  call void @abort()
  ret void
}

; Function Attrs: noinline optnone uwtable
define weak dso_local void @_ZNK10QmlJSTools12SemanticInfo9rangePathEi() #0 {
  call void @abort()
  ret void
}

; Function Attrs: noinline optnone uwtable
define weak dso_local void @_ZNK10QmlJSTools20QmlJSRefactoringFile10isCursorOnEN5QmlJS14SourceLocationE() #0 {
  call void @abort()
  ret void
}

; Function Attrs: noinline optnone uwtable
define weak dso_local void @_ZNK10QmlJSTools20QmlJSRefactoringFile10isCursorOnEPN5QmlJS3AST13UiQualifiedIdE() #0 {
  call void @abort()
  ret void
}

; Function Attrs: noinline optnone uwtable
define weak dso_local void @_ZNK10QmlJSTools20QmlJSRefactoringFile13qmljsDocumentEv() #0 {
  call void @abort()
  ret void
}

; Function Attrs: noinline optnone uwtable
define weak dso_local void @_ZNK10QmlJSTools20QmlJSRefactoringFile7startOfERKN5QmlJS14SourceLocationE() #0 {
  call void @abort()
  ret void
}

; Function Attrs: noinline optnone uwtable
define weak dso_local void @_ZNK10QmlJSTools23QmlJSRefactoringChanges4fileERK7QString() #0 {
  call void @abort()
  ret void
}

; Function Attrs: noinline optnone uwtable
define weak dso_local void @_ZNK10TextEditor14BaseTextEditor10textCursorEv() #0 {
  call void @abort()
  ret void
}

; Function Attrs: noinline optnone uwtable
define weak dso_local void @_ZNK10TextEditor14BaseTextEditor11columnCountEv() #0 {
  call void @abort()
  ret void
}

; Function Attrs: noinline optnone uwtable
define weak dso_local void @_ZNK10TextEditor14BaseTextEditor11contextHelpERKNSt3__18functionIFvRKN4Core8HelpItemEEEE() #0 {
  call void @abort()
  ret void
}

; Function Attrs: noinline optnone uwtable
define weak dso_local void @_ZNK10TextEditor14BaseTextEditor11currentLineEv() #0 {
  call void @abort()
  ret void
}

; Function Attrs: noinline optnone uwtable
define weak dso_local void @_ZNK10TextEditor14BaseTextEditor12editorWidgetEv() #0 {
  call void @abort()
  ret void
}

; Function Attrs: noinline optnone uwtable
define weak dso_local void @_ZNK10TextEditor14BaseTextEditor12selectedTextEv() #0 {
  call void @abort()
  ret void
}

; Function Attrs: noinline optnone uwtable
define weak dso_local void @_ZNK10TextEditor14BaseTextEditor12textDocumentEv() #0 {
  call void @abort()
  ret void
}

; Function Attrs: noinline optnone uwtable
define weak dso_local void @_ZNK10TextEditor14BaseTextEditor13currentColumnEv() #0 {
  call void @abort()
  ret void
}

; Function Attrs: noinline optnone uwtable
define weak dso_local void @_ZNK10TextEditor14BaseTextEditor15convertPositionEiPiS1_() #0 {
  call void @abort()
  ret void
}

; Function Attrs: noinline optnone uwtable
define weak dso_local void @_ZNK10TextEditor14BaseTextEditor8documentEv() #0 {
  call void @abort()
  ret void
}

; Function Attrs: noinline optnone uwtable
define weak dso_local void @_ZNK10TextEditor14BaseTextEditor8positionENS_21TextPositionOperationEi() #0 {
  call void @abort()
  ret void
}

; Function Attrs: noinline optnone uwtable
define weak dso_local void @_ZNK10TextEditor14BaseTextEditor8rowCountEv() #0 {
  call void @abort()
  ret void
}

; Function Attrs: noinline optnone uwtable
define weak dso_local void @_ZNK10TextEditor14BaseTextEditor9saveStateEv() #0 {
  call void @abort()
  ret void
}

; Function Attrs: noinline optnone uwtable
define weak dso_local void @_ZNK10TextEditor16TextEditorWidget10cursorRectEi() #0 {
  call void @abort()
  ret void
}

; Function Attrs: noinline optnone uwtable
define weak dso_local void @_ZNK10TextEditor16TextEditorWidget10lineNumberEi() #0 {
  call void @abort()
  ret void
}

; Function Attrs: noinline optnone uwtable
define weak dso_local void @_ZNK10TextEditor16TextEditorWidget10paintBlockEP8QPainterRK10QTextBlockRK7QPointFRK7QVectorIN11QTextLayout11FormatRangeEERK5QRect() #0 {
  call void @abort()
  ret void
}

; Function Attrs: noinline optnone uwtable
define weak dso_local void @_ZNK10TextEditor16TextEditorWidget11characterAtEi() #0 {
  call void @abort()
  ret void
}

; Function Attrs: noinline optnone uwtable
define weak dso_local void @_ZNK10TextEditor16TextEditorWidget12textDocumentEv() #0 {
  call void @abort()
  ret void
}

; Function Attrs: noinline optnone uwtable
define weak dso_local void @_ZNK10TextEditor16TextEditorWidget14extraAreaWidthEPi() #0 {
  call void @abort()
  ret void
}

; Function Attrs: noinline optnone uwtable
define weak dso_local void @_ZNK10TextEditor16TextEditorWidget15convertPositionEiPiS1_() #0 {
  call void @abort()
  ret void
}

; Function Attrs: noinline optnone uwtable
define weak dso_local void @_ZNK10TextEditor16TextEditorWidget15displaySettingsEv() #0 {
  call void @abort()
  ret void
}

; Function Attrs: noinline optnone uwtable
define weak dso_local void @_ZNK10TextEditor16TextEditorWidget15extraSelectionsEN5Utils2IdE() #0 {
  call void @abort()
  ret void
}

; Function Attrs: noinline optnone uwtable
define weak dso_local void @_ZNK10TextEditor16TextEditorWidget15refactorMarkersEv() #0 {
  call void @abort()
  ret void
}

; Function Attrs: noinline optnone uwtable
define weak dso_local void @_ZNK10TextEditor16TextEditorWidget15toolTipPositionERK11QTextCursor() #0 {
  call void @abort()
  ret void
}

; Function Attrs: noinline optnone uwtable
define weak dso_local void @_ZNK10TextEditor16TextEditorWidget16behaviorSettingsEv() #0 {
  call void @abort()
  ret void
}

; Function Attrs: noinline optnone uwtable
define weak dso_local void @_ZNK10TextEditor16TextEditorWidget16lineNumberDigitsEv() #0 {
  call void @abort()
  ret void
}

; Function Attrs: noinline optnone uwtable
define weak dso_local void @_ZNK10TextEditor16TextEditorWidget16selectionVisibleEi() #0 {
  call void @abort()
  ret void
}

; Function Attrs: noinline optnone uwtable
define weak dso_local void @_ZNK10TextEditor16TextEditorWidget17hasBlockSelectionEv() #0 {
  call void @abort()
  ret void
}

; Function Attrs: noinline optnone uwtable
define weak dso_local void @_ZNK10TextEditor16TextEditorWidget18languageSettingsIdEv() #0 {
  call void @abort()
  ret void
}

; Function Attrs: noinline optnone uwtable
define weak dso_local void @_ZNK10TextEditor16TextEditorWidget18replacementVisibleEi() #0 {
  call void @abort()
  ret void
}

; Function Attrs: noinline optnone uwtable
define weak dso_local void @_ZNK10TextEditor16TextEditorWidget19foldReplacementTextERK10QTextBlock() #0 {
  call void @abort()
  ret void
}

; Function Attrs: noinline optnone uwtable
define weak dso_local void @_ZNK10TextEditor16TextEditorWidget19replacementPenColorEi() #0 {
  call void @abort()
  ret void
}

; Function Attrs: noinline optnone uwtable
define weak dso_local void @_ZNK10TextEditor16TextEditorWidget21canInsertFromMimeDataEPK9QMimeData() #0 {
  call void @abort()
  ret void
}

; Function Attrs: noinline optnone uwtable
define weak dso_local void @_ZNK10TextEditor16TextEditorWidget21createAssistInterfaceENS_10AssistKindENS_12AssistReasonE() #0 {
  call void @abort()
  ret void
}

; Function Attrs: noinline optnone uwtable
define weak dso_local void @_ZNK10TextEditor16TextEditorWidget21extraSelectionTooltipEi() #0 {
  call void @abort()
  ret void
}

; Function Attrs: noinline optnone uwtable
define weak dso_local void @_ZNK10TextEditor16TextEditorWidget22lastVisibleBlockNumberEv() #0 {
  call void @abort()
  ret void
}

; Function Attrs: noinline optnone uwtable
define weak dso_local void @_ZNK10TextEditor16TextEditorWidget22plainTextFromSelectionERK11QTextCursor() #0 {
  call void @abort()
  ret void
}

; Function Attrs: noinline optnone uwtable
define weak dso_local void @_ZNK10TextEditor16TextEditorWidget23firstVisibleBlockNumberEv() #0 {
  call void @abort()
  ret void
}

; Function Attrs: noinline optnone uwtable
define weak dso_local void @_ZNK10TextEditor16TextEditorWidget24centerVisibleBlockNumberEv() #0 {
  call void @abort()
  ret void
}

; Function Attrs: noinline optnone uwtable
define weak dso_local void @_ZNK10TextEditor16TextEditorWidget26alwaysOpenLinksInNextSplitEv() #0 {
  call void @abort()
  ret void
}

; Function Attrs: noinline optnone uwtable
define weak dso_local void @_ZNK10TextEditor16TextEditorWidget27createMimeDataFromSelectionEv() #0 {
  call void @abort()
  ret void
}

; Function Attrs: noinline optnone uwtable
define weak dso_local void @_ZNK10TextEditor16TextEditorWidget28highlightScrollBarControllerEv() #0 {
  call void @abort()
  ret void
}

; Function Attrs: noinline optnone uwtable
define weak dso_local void @_ZNK10TextEditor16TextEditorWidget32verticalBlockSelectionLastColumnEv() #0 {
  call void @abort()
  ret void
}

; Function Attrs: noinline optnone uwtable
define weak dso_local void @_ZNK10TextEditor16TextEditorWidget33verticalBlockSelectionFirstColumnEv() #0 {
  call void @abort()
  ret void
}

; Function Attrs: noinline optnone uwtable
define weak dso_local void @_ZNK10TextEditor16TextEditorWidget6textAtEii() #0 {
  call void @abort()
  ret void
}

; Function Attrs: noinline optnone uwtable
define weak dso_local void @_ZNK10TextEditor16TextEditorWidget8positionENS_21TextPositionOperationEi() #0 {
  call void @abort()
  ret void
}

; Function Attrs: noinline optnone uwtable
define weak dso_local void @_ZNK10TextEditor16TextEditorWidget9saveStateEv() #0 {
  call void @abort()
  ret void
}

; Function Attrs: noinline optnone uwtable
define weak dso_local void @_ZNK10TextEditor19DisplaySettingsPage14marginSettingsEv() #0 {
  call void @abort()
  ret void
}

; Function Attrs: noinline optnone uwtable
define weak dso_local void @_ZNK10TextEditor19DisplaySettingsPage15displaySettingsEv() #0 {
  call void @abort()
  ret void
}

; Function Attrs: noinline optnone uwtable
define weak dso_local void @_ZNK10TextEditor20BehaviorSettingsPage13codeStylePoolEv() #0 {
  call void @abort()
  ret void
}

; Function Attrs: noinline optnone uwtable
define weak dso_local void @_ZNK10TextEditor20BehaviorSettingsPage14typingSettingsEv() #0 {
  call void @abort()
  ret void
}

; Function Attrs: noinline optnone uwtable
define weak dso_local void @_ZNK10TextEditor20BehaviorSettingsPage15storageSettingsEv() #0 {
  call void @abort()
  ret void
}

; Function Attrs: noinline optnone uwtable
define weak dso_local void @_ZNK10TextEditor20BehaviorSettingsPage16behaviorSettingsEv() #0 {
  call void @abort()
  ret void
}

; Function Attrs: noinline optnone uwtable
define weak dso_local void @_ZNK10TextEditor20BehaviorSettingsPage21extraEncodingSettingsEv() #0 {
  call void @abort()
  ret void
}

; Function Attrs: noinline optnone uwtable
define weak dso_local void @_ZNK10TextEditor20BehaviorSettingsPage9codeStyleEv() #0 {
  call void @abort()
  ret void
}

; Function Attrs: noinline optnone uwtable
define weak dso_local void @_ZNK10TextEditor23HighlighterSettingsPage19highlighterSettingsEv() #0 {
  call void @abort()
  ret void
}

; Function Attrs: noinline optnone uwtable
define weak dso_local void @_ZNK13LanguageUtils12FakeMetaEnum3keyEi() #0 {
  call void @abort()
  ret void
}

; Function Attrs: noinline optnone uwtable
define weak dso_local void @_ZNK13LanguageUtils12FakeMetaEnum4keysEv() #0 {
  call void @abort()
  ret void
}

; Function Attrs: noinline optnone uwtable
define weak dso_local void @_ZNK13LanguageUtils12FakeMetaEnum4nameEv() #0 {
  call void @abort()
  ret void
}

; Function Attrs: noinline optnone uwtable
define weak dso_local void @_ZNK13LanguageUtils12FakeMetaEnum8keyCountEv() #0 {
  call void @abort()
  ret void
}

; Function Attrs: noinline optnone uwtable
define weak dso_local void @_ZNK13LanguageUtils14FakeMetaMethod10methodNameEv() #0 {
  call void @abort()
  ret void
}

; Function Attrs: noinline optnone uwtable
define weak dso_local void @_ZNK13LanguageUtils14FakeMetaMethod10methodTypeEv() #0 {
  call void @abort()
  ret void
}

; Function Attrs: noinline optnone uwtable
define weak dso_local void @_ZNK13LanguageUtils14FakeMetaMethod14parameterNamesEv() #0 {
  call void @abort()
  ret void
}

; Function Attrs: noinline optnone uwtable
define weak dso_local void @_ZNK13LanguageUtils14FakeMetaMethod14parameterTypesEv() #0 {
  call void @abort()
  ret void
}

; Function Attrs: noinline optnone uwtable
define weak dso_local void @_ZNK13LanguageUtils14FakeMetaMethod6accessEv() #0 {
  call void @abort()
  ret void
}

; Function Attrs: noinline optnone uwtable
define weak dso_local void @_ZNK13LanguageUtils14FakeMetaMethod8revisionEv() #0 {
  call void @abort()
  ret void
}

; Function Attrs: noinline optnone uwtable
define weak dso_local void @_ZNK13LanguageUtils14FakeMetaObject10enumeratorEi() #0 {
  call void @abort()
  ret void
}

; Function Attrs: noinline optnone uwtable
define weak dso_local void @_ZNK13LanguageUtils14FakeMetaObject11fingerprintEv() #0 {
  call void @abort()
  ret void
}

; Function Attrs: noinline optnone uwtable
define weak dso_local void @_ZNK13LanguageUtils14FakeMetaObject11methodCountEv() #0 {
  call void @abort()
  ret void
}

; Function Attrs: noinline optnone uwtable
define weak dso_local void @_ZNK13LanguageUtils14FakeMetaObject13propertyCountEv() #0 {
  call void @abort()
  ret void
}

; Function Attrs: noinline optnone uwtable
define weak dso_local void @_ZNK13LanguageUtils14FakeMetaObject13propertyIndexERK7QString() #0 {
  call void @abort()
  ret void
}

; Function Attrs: noinline optnone uwtable
define weak dso_local void @_ZNK13LanguageUtils14FakeMetaObject14superclassNameEv() #0 {
  call void @abort()
  ret void
}

; Function Attrs: noinline optnone uwtable
define weak dso_local void @_ZNK13LanguageUtils14FakeMetaObject15enumeratorCountEv() #0 {
  call void @abort()
  ret void
}

; Function Attrs: noinline optnone uwtable
define weak dso_local void @_ZNK13LanguageUtils14FakeMetaObject15enumeratorIndexERK7QString() #0 {
  call void @abort()
  ret void
}

; Function Attrs: noinline optnone uwtable
define weak dso_local void @_ZNK13LanguageUtils14FakeMetaObject16attachedTypeNameEv() #0 {
  call void @abort()
  ret void
}

; Function Attrs: noinline optnone uwtable
define weak dso_local void @_ZNK13LanguageUtils14FakeMetaObject16enumeratorOffsetEv() #0 {
  call void @abort()
  ret void
}

; Function Attrs: noinline optnone uwtable
define weak dso_local void @_ZNK13LanguageUtils14FakeMetaObject19defaultPropertyNameEv() #0 {
  call void @abort()
  ret void
}

; Function Attrs: noinline optnone uwtable
define weak dso_local void @_ZNK13LanguageUtils14FakeMetaObject6methodEi() #0 {
  call void @abort()
  ret void
}

; Function Attrs: noinline optnone uwtable
define weak dso_local void @_ZNK13LanguageUtils14FakeMetaObject7exportsEv() #0 {
  call void @abort()
  ret void
}

; Function Attrs: noinline optnone uwtable
define weak dso_local void @_ZNK13LanguageUtils14FakeMetaObject8propertyEi() #0 {
  call void @abort()
  ret void
}

; Function Attrs: noinline optnone uwtable
define weak dso_local void @_ZNK13LanguageUtils14FakeMetaObject9classNameEv() #0 {
  call void @abort()
  ret void
}

; Function Attrs: noinline optnone uwtable
define weak dso_local void @_ZNK13LanguageUtils16ComponentVersion7isValidEv() #0 {
  call void @abort()
  ret void
}

; Function Attrs: noinline optnone uwtable
define weak dso_local void @_ZNK13LanguageUtils16ComponentVersion8toStringEv() #0 {
  call void @abort()
  ret void
}

; Function Attrs: noinline optnone uwtable
define weak dso_local void @_ZNK13LanguageUtils16ComponentVersion9addToHashER18QCryptographicHash() #0 {
  call void @abort()
  ret void
}

; Function Attrs: noinline optnone uwtable
define weak dso_local void @_ZNK13LanguageUtils16FakeMetaProperty10isWritableEv() #0 {
  call void @abort()
  ret void
}

; Function Attrs: noinline optnone uwtable
define weak dso_local void @_ZNK13LanguageUtils16FakeMetaProperty4nameEv() #0 {
  call void @abort()
  ret void
}

; Function Attrs: noinline optnone uwtable
define weak dso_local void @_ZNK13LanguageUtils16FakeMetaProperty6isListEv() #0 {
  call void @abort()
  ret void
}

; Function Attrs: noinline optnone uwtable
define weak dso_local void @_ZNK13LanguageUtils16FakeMetaProperty8revisionEv() #0 {
  call void @abort()
  ret void
}

; Function Attrs: noinline optnone uwtable
define weak dso_local void @_ZNK13LanguageUtils16FakeMetaProperty8typeNameEv() #0 {
  call void @abort()
  ret void
}

; Function Attrs: noinline optnone uwtable
define weak dso_local void @_ZNK13LanguageUtils16FakeMetaProperty9isPointerEv() #0 {
  call void @abort()
  ret void
}

; Function Attrs: noinline optnone uwtable
define weak dso_local void @_ZNK15ProjectExplorer10JsonWizard11stringValueERK7QString() #0 {
  call void @abort()
  ret void
}

; Function Attrs: noinline optnone uwtable
define weak dso_local void @_ZNK15ProjectExplorer15KitAspectWidget16kitInformationIdEv() #0 {
  call void @abort()
  ret void
}

; Function Attrs: noinline optnone uwtable
define weak dso_local void @_ZNK15ProjectExplorer8Internal17ProjectWizardPage11currentNodeEv() #0 {
  call void @abort()
  ret void
}

; Function Attrs: noinline optnone uwtable
define weak dso_local void @_ZNK15ProjectExplorer8Internal19SimpleProjectWizard13generateFilesEPK7QWizardP7QString() #0 {
  call void @abort()
  ret void
}

; Function Attrs: noinline optnone uwtable
define weak dso_local void @_ZNK15ProjectExplorer8Internal19SimpleProjectWizard17postGenerateFilesEPK7QWizardRK5QListIN4Core13GeneratedFileEEP7QString() #0 {
  call void @abort()
  ret void
}

; Function Attrs: noinline optnone uwtable
define weak dso_local void @_ZNK15ProjectExplorer8Internal19SimpleProjectWizard6createEP7QWidgetRKN4Core22WizardDialogParametersE() #0 {
  call void @abort()
  ret void
}

; Function Attrs: noinline optnone uwtable
define weak dso_local void @_ZNK15ProjectExplorer8Internal22SessionNameInputDialog19isSwitchToRequestedEv() #0 {
  call void @abort()
  ret void
}

; Function Attrs: noinline optnone uwtable
define weak dso_local void @_ZNK15ProjectExplorer8Internal22SessionNameInputDialog5valueEv() #0 {
  call void @abort()
  ret void
}

; Function Attrs: noinline optnone uwtable
define weak dso_local void @_ZNK15ProjectExplorer8Internal24CustomParserConfigDialog8settingsEv() #0 {
  call void @abort()
  ret void
}

; Function Attrs: noinline optnone uwtable
define weak dso_local void @_ZNK15ProjectExplorer9KitAspect16addToEnvironmentEPKNS_3KitERN5Utils11EnvironmentE() #0 {
  call void @abort()
  ret void
}

; Function Attrs: noinline optnone uwtable
define weak dso_local void @_ZNK15ProjectExplorer9KitAspect17availableFeaturesEPKNS_3KitE() #0 {
  call void @abort()
  ret void
}

; Function Attrs: noinline optnone uwtable
define weak dso_local void @_ZNK15ProjectExplorer9KitAspect18addToMacroExpanderEPNS_3KitEPN5Utils13MacroExpanderE() #0 {
  call void @abort()
  ret void
}

; Function Attrs: noinline optnone uwtable
define weak dso_local void @_ZNK15ProjectExplorer9KitAspect18displayNamePostfixEPKNS_3KitE() #0 {
  call void @abort()
  ret void
}

; Function Attrs: noinline optnone uwtable
define weak dso_local void @_ZNK15ProjectExplorer9KitAspect18supportedPlatformsEPKNS_3KitE() #0 {
  call void @abort()
  ret void
}

; Function Attrs: noinline optnone uwtable
define weak dso_local void @_ZNK15ProjectExplorer9KitAspect19createOutputParsersEPKNS_3KitE() #0 {
  call void @abort()
  ret void
}

; Function Attrs: noinline optnone uwtable
define weak dso_local void @_ZNK15ProjectExplorer9KitAspect6weightEPKNS_3KitE() #0 {
  call void @abort()
  ret void
}

; Function Attrs: noinline optnone uwtable
define weak dso_local void @_ZNK19KSyntaxHighlighting10Definition4nameEv() #0 {
  call void @abort()
  ret void
}

; Function Attrs: noinline optnone uwtable
define weak dso_local void @_ZNK19KSyntaxHighlighting10Definition7isValidEv() #0 {
  call void @abort()
  ret void
}

; Function Attrs: noinline optnone uwtable
define weak dso_local void @_ZNK19KSyntaxHighlighting10DefinitioneqERKS0_() #0 {
  call void @abort()
  ret void
}

; Function Attrs: noinline optnone uwtable
define weak dso_local void @_ZNK19KSyntaxHighlighting10Repository17definitionForNameERK7QString() #0 {
  call void @abort()
  ret void
}

; Function Attrs: noinline optnone uwtable
define weak dso_local void @_ZNK19KSyntaxHighlighting10Repository22definitionsForFileNameERK7QString() #0 {
  call void @abort()
  ret void
}

; Function Attrs: noinline optnone uwtable
define weak dso_local void @_ZNK19KSyntaxHighlighting10Repository22definitionsForMimeTypeERK7QString() #0 {
  call void @abort()
  ret void
}

; Function Attrs: noinline optnone uwtable
define weak dso_local void @_ZNK19KSyntaxHighlighting13FoldingRegion4typeEv() #0 {
  call void @abort()
  ret void
}

; Function Attrs: noinline optnone uwtable
define weak dso_local void @_ZNK19KSyntaxHighlighting13FoldingRegion7isValidEv() #0 {
  call void @abort()
  ret void
}

; Function Attrs: noinline optnone uwtable
define weak dso_local void @_ZNK19KSyntaxHighlighting19AbstractHighlighter10definitionEv() #0 {
  call void @abort()
  ret void
}

; Function Attrs: noinline optnone uwtable
define weak dso_local void @_ZNK19KSyntaxHighlighting5StateneERKS0_() #0 {
  call void @abort()
  ret void
}

; Function Attrs: noinline optnone uwtable
define weak dso_local void @_ZNK19KSyntaxHighlighting6Format11isUnderlineERKNS_5ThemeE() #0 {
  call void @abort()
  ret void
}

; Function Attrs: noinline optnone uwtable
define weak dso_local void @_ZNK19KSyntaxHighlighting6Format12hasTextColorERKNS_5ThemeE() #0 {
  call void @abort()
  ret void
}

; Function Attrs: noinline optnone uwtable
define weak dso_local void @_ZNK19KSyntaxHighlighting6Format15isStrikeThroughERKNS_5ThemeE() #0 {
  call void @abort()
  ret void
}

; Function Attrs: noinline optnone uwtable
define weak dso_local void @_ZNK19KSyntaxHighlighting6Format18hasBackgroundColorERKNS_5ThemeE() #0 {
  call void @abort()
  ret void
}

; Function Attrs: noinline optnone uwtable
define weak dso_local void @_ZNK19KSyntaxHighlighting6Format6isBoldERKNS_5ThemeE() #0 {
  call void @abort()
  ret void
}

; Function Attrs: noinline optnone uwtable
define weak dso_local void @_ZNK19KSyntaxHighlighting6Format8isItalicERKNS_5ThemeE() #0 {
  call void @abort()
  ret void
}

; Function Attrs: noinline optnone uwtable
define weak dso_local void @_ZNK19KSyntaxHighlighting6Format9textColorERKNS_5ThemeE() #0 {
  call void @abort()
  ret void
}

; Function Attrs: noinline optnone uwtable
define weak dso_local void @_ZNK19KSyntaxHighlighting6Format9textStyleEv() #0 {
  call void @abort()
  ret void
}

; Function Attrs: noinline optnone uwtable
define weak dso_local void @_ZNK4Core11IFindFilter15defaultShortcutEv() #0 {
  call void @abort()
  ret void
}

; Function Attrs: noinline optnone uwtable
define weak dso_local void @_ZNK4Core11IFindFilter18supportedFindFlagsEv() #0 {
  call void @abort()
  ret void
}

; Function Attrs: noinline optnone uwtable
define weak dso_local void @_ZNK4Core12ItemViewFind10metaObjectEv() #0 {
  call void @abort()
  ret void
}

; Function Attrs: noinline optnone uwtable
define weak dso_local void @_ZNK4Core12ItemViewFind15supportsReplaceEv() #0 {
  call void @abort()
  ret void
}

; Function Attrs: noinline optnone uwtable
define weak dso_local void @_ZNK4Core12ItemViewFind17currentFindStringEv() #0 {
  call void @abort()
  ret void
}

; Function Attrs: noinline optnone uwtable
define weak dso_local void @_ZNK4Core12ItemViewFind18supportedFindFlagsEv() #0 {
  call void @abort()
  ret void
}

; Function Attrs: noinline optnone uwtable
define weak dso_local void @_ZNK4Core12ItemViewFind19completedFindStringEv() #0 {
  call void @abort()
  ret void
}

; Function Attrs: noinline optnone uwtable
define weak dso_local void @_ZNK4Core12SearchResult23additionalReplaceWidgetEv() #0 {
  call void @abort()
  ret void
}

; Function Attrs: noinline optnone uwtable
define weak dso_local void @_ZNK4Core12SearchResult8userDataEv() #0 {
  call void @abort()
  ret void
}

; Function Attrs: noinline optnone uwtable
define weak dso_local void @_ZNK4Core14BaseFileFilter6acceptENS_18LocatorFilterEntryEP7QStringPiS4_() #0 {
  call void @abort()
  ret void
}

; Function Attrs: noinline optnone uwtable
define weak dso_local void @_ZNK4Core14ILocatorFilter14shortcutStringEv() #0 {
  call void @abort()
  ret void
}

; Function Attrs: noinline optnone uwtable
define weak dso_local void @_ZNK4Core14ILocatorFilter9saveStateEv() #0 {
  call void @abort()
  ret void
}

; Function Attrs: noinline optnone uwtable
define weak dso_local void @_ZNK4Core16BaseTextDocument15supportsUtf8BomEv() #0 {
  call void @abort()
  ret void
}

; Function Attrs: noinline optnone uwtable
define weak dso_local void @_ZNK4Core16BaseTextDocument16hasDecodingErrorEv() #0 {
  call void @abort()
  ret void
}

; Function Attrs: noinline optnone uwtable
define weak dso_local void @_ZNK4Core16BaseTextDocument19decodingErrorSampleEv() #0 {
  call void @abort()
  ret void
}

; Function Attrs: noinline optnone uwtable
define weak dso_local void @_ZNK4Core16BaseTextDocument5codecEv() #0 {
  call void @abort()
  ret void
}

; Function Attrs: noinline optnone uwtable
define weak dso_local void @_ZNK4Core16BaseTextDocument5writeERK7QStringRKN5Utils14TextFileFormatES3_PS1_() #0 {
  call void @abort()
  ret void
}

; Function Attrs: noinline optnone uwtable
define weak dso_local void @_ZNK4Core16BaseTextDocument6formatEv() #0 {
  call void @abort()
  ret void
}

; Function Attrs: noinline optnone uwtable
define weak dso_local void @_ZNK4Core7Command32augmentActionWithShortcutToolTipEP7QAction() #0 {
  call void @abort()
  ret void
}

; Function Attrs: noinline optnone uwtable
define weak dso_local void @_ZNK4Core8Internal10MainWindow13contextObjectEP7QWidget() #0 {
  call void @abort()
  ret void
}

; Function Attrs: noinline optnone uwtable
define weak dso_local void @_ZNK4Core8Internal10MainWindow20currentContextObjectEv() #0 {
  call void @abort()
  ret void
}

; Function Attrs: noinline optnone uwtable
define weak dso_local void @_ZNK4Core8Internal10MainWindow26additionalAboutInformationEv() #0 {
  call void @abort()
  ret void
}

; Function Attrs: noinline optnone uwtable
define weak dso_local void @_ZNK4Core8Internal10MainWindow7infoBarEv() #0 {
  call void @abort()
  ret void
}

; Function Attrs: noinline optnone uwtable
define weak dso_local void @_ZNK4Core8Internal10MainWindow9statusBarEv() #0 {
  call void @abort()
  ret void
}

; Function Attrs: noinline optnone uwtable
define weak dso_local void @_ZNK4Core8Internal6Action11descriptionEv() #0 {
  call void @abort()
  ret void
}

; Function Attrs: noinline optnone uwtable
define weak dso_local void @_ZNK4Core8Internal6Action11keySequenceEv() #0 {
  call void @abort()
  ret void
}

; Function Attrs: noinline optnone uwtable
define weak dso_local void @_ZNK4Core8Internal6Action12hasAttributeENS_7Command16CommandAttributeE() #0 {
  call void @abort()
  ret void
}

; Function Attrs: noinline optnone uwtable
define weak dso_local void @_ZNK4Core8Internal6Action12isScriptableERKNS_7ContextE() #0 {
  call void @abort()
  ret void
}

; Function Attrs: noinline optnone uwtable
define weak dso_local void @_ZNK4Core8Internal6Action12isScriptableEv() #0 {
  call void @abort()
  ret void
}

; Function Attrs: noinline optnone uwtable
define weak dso_local void @_ZNK4Core8Internal6Action12keySequencesEv() #0 {
  call void @abort()
  ret void
}

; Function Attrs: noinline optnone uwtable
define weak dso_local void @_ZNK4Core8Internal6Action12touchBarIconEv() #0 {
  call void @abort()
  ret void
}

; Function Attrs: noinline optnone uwtable
define weak dso_local void @_ZNK4Core8Internal6Action12touchBarTextEv() #0 {
  call void @abort()
  ret void
}

; Function Attrs: noinline optnone uwtable
define weak dso_local void @_ZNK4Core8Internal6Action14touchBarActionEv() #0 {
  call void @abort()
  ret void
}

; Function Attrs: noinline optnone uwtable
define weak dso_local void @_ZNK4Core8Internal6Action19defaultKeySequencesEv() #0 {
  call void @abort()
  ret void
}

; Function Attrs: noinline optnone uwtable
define weak dso_local void @_ZNK4Core8Internal6Action26stringWithAppendedShortcutERK7QString() #0 {
  call void @abort()
  ret void
}

; Function Attrs: noinline optnone uwtable
define weak dso_local void @_ZNK4Core8Internal6Action2idEv() #0 {
  call void @abort()
  ret void
}

; Function Attrs: noinline optnone uwtable
define weak dso_local void @_ZNK4Core8Internal6Action6actionEv() #0 {
  call void @abort()
  ret void
}

; Function Attrs: noinline optnone uwtable
define weak dso_local void @_ZNK4Core8Internal6Action7contextEv() #0 {
  call void @abort()
  ret void
}

; Function Attrs: noinline optnone uwtable
define weak dso_local void @_ZNK4Core8Internal6Action7isEmptyEv() #0 {
  call void @abort()
  ret void
}

; Function Attrs: noinline optnone uwtable
define weak dso_local void @_ZNK4Core8Internal6Action8isActiveEv() #0 {
  call void @abort()
  ret void
}

; Function Attrs: noinline optnone uwtable
define weak dso_local void @_ZNK7VcsBase18SubmitEditorWidget10commitNameEv() #0 {
  call void @abort()
  ret void
}

; Function Attrs: noinline optnone uwtable
define weak dso_local void @_ZNK7VcsBase18SubmitEditorWidget12checkedFilesEv() #0 {
  call void @abort()
  ret void
}

; Function Attrs: noinline optnone uwtable
define weak dso_local void @_ZNK7VcsBase18SubmitEditorWidget12selectedRowsEv() #0 {
  call void @abort()
  ret void
}

; Function Attrs: noinline optnone uwtable
define weak dso_local void @_ZNK7VcsBase18SubmitEditorWidget13lineWrapWidthEv() #0 {
  call void @abort()
  ret void
}

; Function Attrs: noinline optnone uwtable
define weak dso_local void @_ZNK7VcsBase18SubmitEditorWidget15descriptionEditEv() #0 {
  call void @abort()
  ret void
}

; Function Attrs: noinline optnone uwtable
define weak dso_local void @_ZNK7VcsBase18SubmitEditorWidget15descriptionTextEv() #0 {
  call void @abort()
  ret void
}

; Function Attrs: noinline optnone uwtable
define weak dso_local void @_ZNK7VcsBase18SubmitEditorWidget18cleanupDescriptionERK7QString() #0 {
  call void @abort()
  ret void
}

; Function Attrs: noinline optnone uwtable
define weak dso_local void @_ZNK7VcsBase18SubmitEditorWidget18submitFieldWidgetsEv() #0 {
  call void @abort()
  ret void
}

; Function Attrs: noinline optnone uwtable
define weak dso_local void @_ZNK7VcsBase18SubmitEditorWidget21fileListSelectionModeEv() #0 {
  call void @abort()
  ret void
}

; Function Attrs: noinline optnone uwtable
define weak dso_local void @_ZNK7VcsBase18SubmitEditorWidget22isDescriptionMandatoryEv() #0 {
  call void @abort()
  ret void
}

; Function Attrs: noinline optnone uwtable
define weak dso_local void @_ZNK7VcsBase18SubmitEditorWidget22isEmptyFileListEnabledEv() #0 {
  call void @abort()
  ret void
}

; Function Attrs: noinline optnone uwtable
define weak dso_local void @_ZNK7VcsBase18SubmitEditorWidget8lineWrapEv() #0 {
  call void @abort()
  ret void
}

; Function Attrs: noinline optnone uwtable
define weak dso_local void @_ZNK7VcsBase18SubmitEditorWidget9canSubmitEP7QString() #0 {
  call void @abort()
  ret void
}

; Function Attrs: noinline optnone uwtable
define weak dso_local void @_ZNK7VcsBase18SubmitEditorWidget9fileModelEv() #0 {
  call void @abort()
  ret void
}

; Function Attrs: noinline optnone uwtable
define weak dso_local void @_ZNK7VcsBase8Internal14NickNameDialog8nickNameEv() #0 {
  call void @abort()
  ret void
}

; Function Attrs: noinline optnone uwtable
define weak dso_local void @_ZNK8CppTools28ClangDiagnosticConfigsWidget13currentConfigEv() #0 {
  call void @abort()
  ret void
}

; Function Attrs: noinline optnone uwtable
define weak dso_local void @_ZNK8CppTools28ClangDiagnosticConfigsWidget7configsEv() #0 {
  call void @abort()
  ret void
}

; Function Attrs: noinline optnone uwtable
define weak dso_local void @_ZNK9CppEditor8Internal21CppPreProcessorDialog27extraPreprocessorDirectivesEv() #0 {
  call void @abort()
  ret void
}

; Function Attrs: noinline optnone uwtable
define weak dso_local void @_ZNK9QtSupport13BaseQtVersion10hasQmlDumpEv() #0 {
  call void @abort()
  ret void
}

; Function Attrs: noinline optnone uwtable
define weak dso_local void @_ZNK9QtSupport13BaseQtVersion10uicCommandEv() #0 {
  call void @abort()
  ret void
}

; Function Attrs: noinline optnone uwtable
define weak dso_local void @_ZNK9QtSupport13BaseQtVersion11displayNameEv() #0 {
  call void @abort()
  ret void
}

; Function Attrs: noinline optnone uwtable
define weak dso_local void @_ZNK9QtSupport13BaseQtVersion11hostBinPathEv() #0 {
  call void @abort()
  ret void
}

; Function Attrs: noinline optnone uwtable
define weak dso_local void @_ZNK9QtSupport13BaseQtVersion12qmakeCommandEv() #0 {
  call void @abort()
  ret void
}

; Function Attrs: noinline optnone uwtable
define weak dso_local void @_ZNK9QtSupport13BaseQtVersion14isAutodetectedEv() #0 {
  call void @abort()
  ret void
}

; Function Attrs: noinline optnone uwtable
define weak dso_local void @_ZNK9QtSupport13BaseQtVersion14qscxmlcCommandEv() #0 {
  call void @abort()
  ret void
}

; Function Attrs: noinline optnone uwtable
define weak dso_local void @_ZNK9QtSupport13BaseQtVersion19autodetectionSourceEv() #0 {
  call void @abort()
  ret void
}

; Function Attrs: noinline optnone uwtable
define weak dso_local void @_ZNK9QtSupport13BaseQtVersion19qtPackageSourcePathEv() #0 {
  call void @abort()
  ret void
}

; Function Attrs: noinline optnone uwtable
define weak dso_local void @_ZNK9QtSupport13BaseQtVersion21unexpandedDisplayNameEv() #0 {
  call void @abort()
  ret void
}

; Function Attrs: noinline optnone uwtable
define weak dso_local void @_ZNK9QtSupport13BaseQtVersion4typeEv() #0 {
  call void @abort()
  ret void
}

; Function Attrs: noinline optnone uwtable
define weak dso_local void @_ZNK9QtSupport13BaseQtVersion6mkspecEv() #0 {
  call void @abort()
  ret void
}

; Function Attrs: noinline optnone uwtable
define weak dso_local void @_ZNK9QtSupport13BaseQtVersion6qtAbisEv() #0 {
  call void @abort()
  ret void
}

; Function Attrs: noinline optnone uwtable
define weak dso_local void @_ZNK9QtSupport13BaseQtVersion7binPathEv() #0 {
  call void @abort()
  ret void
}

; Function Attrs: noinline optnone uwtable
define weak dso_local void @_ZNK9QtSupport13BaseQtVersion8docsPathEv() #0 {
  call void @abort()
  ret void
}

; Function Attrs: noinline optnone uwtable
define weak dso_local void @_ZNK9QtSupport13BaseQtVersion8featuresEv() #0 {
  call void @abort()
  ret void
}

; Function Attrs: noinline optnone uwtable
define weak dso_local void @_ZNK9QtSupport13BaseQtVersion8uniqueIdEv() #0 {
  call void @abort()
  ret void
}

; Function Attrs: noinline optnone uwtable
define weak dso_local void @_ZNK9QtSupport13BaseQtVersion9qtVersionEv() #0 {
  call void @abort()
  ret void
}

; Function Attrs: noinline optnone uwtable
define weak dso_local void @_ZNK9QtSupport15QtVersionNumbereqERKS0_() #0 {
  call void @abort()
  ret void
}

; Function Attrs: noinline optnone uwtable
define weak dso_local void @_ZNK9QtSupport15QtVersionNumbergtERKS0_() #0 {
  call void @abort()
  ret void
}

; Function Attrs: noinline optnone uwtable
define weak dso_local void @_ZNK9QtSupport15QtVersionNumberltERKS0_() #0 {
  call void @abort()
  ret void
}

; Function Attrs: noinline optnone uwtable
define weak dso_local void @_ZNK9QtSupport8Internal17ExamplesListModel31fetchPixmapAndUpdatePixmapCacheERK7QString() #0 {
  call void @abort()
  ret void
}

; Function Attrs: noinline optnone uwtable
define weak dso_local void @_ZNK9QtSupport8Internal17ExamplesListModel4dataERK11QModelIndexi() #0 {
  call void @abort()
  ret void
}

; Function Attrs: noinline optnone uwtable
define weak dso_local void @_ZTIN10TextEditor17TextEditorFactoryE() #0 {
  call void @abort()
  ret void
}

; Function Attrs: noinline optnone uwtable
define weak dso_local void @_ZTIN15ProjectExplorer21JsonWizardPageFactoryE() #0 {
  call void @abort()
  ret void
}

; Function Attrs: noinline optnone uwtable
define weak dso_local void @_ZTIN19KSyntaxHighlighting19AbstractHighlighterE() #0 {
  call void @abort()
  ret void
}

; Function Attrs: noinline optnone uwtable
define weak dso_local void @_ZTIN4Core11IFindFilterE() #0 {
  call void @abort()
  ret void
}

; Function Attrs: noinline optnone uwtable
define weak dso_local void @_ZTIN4Core12IFindSupportE() #0 {
  call void @abort()
  ret void
}

; Function Attrs: noinline optnone uwtable
define weak dso_local void @_ZTIN4Core12ItemViewFindE() #0 {
  call void @abort()
  ret void
}

; Function Attrs: noinline optnone uwtable
define weak dso_local void @_ZTIN4Core12ShellCommandE() #0 {
  call void @abort()
  ret void
}

; Function Attrs: noinline optnone uwtable
define weak dso_local void @_ZTIN4Core14BaseFileFilter8IteratorE() #0 {
  call void @abort()
  ret void
}

; Function Attrs: noinline optnone uwtable
define weak dso_local void @_ZTIN4Core14BaseFileFilterE() #0 {
  call void @abort()
  ret void
}

; Function Attrs: noinline optnone uwtable
define weak dso_local void @_ZTIN4Core14ILocatorFilterE() #0 {
  call void @abort()
  ret void
}

; Function Attrs: noinline optnone uwtable
define weak dso_local void @_ZTIN4Core16BaseTextDocumentE() #0 {
  call void @abort()
  ret void
}

; Function Attrs: noinline optnone uwtable
define weak dso_local void @_ZTVN15ProjectExplorer21JsonWizardPageFactoryE() #0 {
  call void @abort()
  ret void
}

; Function Attrs: noinline optnone uwtable
define weak dso_local void @_ZTVN4Core12IFindSupportE() #0 {
  call void @abort()
  ret void
}

; Function Attrs: noinline optnone uwtable
define weak dso_local void @_ZTVN4Core12ShellCommandE() #0 {
  call void @abort()
  ret void
}

; Function Attrs: noinline optnone uwtable
define weak dso_local void @_ZTVN4Core14BaseFileFilter8IteratorE() #0 {
  call void @abort()
  ret void
}

; Function Attrs: noinline optnone uwtable
define weak dso_local void @_ZTVN8CppTools8Internal24CppCodeStyleSettingsPageE() #0 {
  call void @abort()
  ret void
}

; Function Attrs: noinline optnone uwtable
define weak dso_local void @_ZThn16_N10TextEditor16TextEditorWidgetD0Ev() #0 {
  call void @abort()
  ret void
}

; Function Attrs: noinline optnone uwtable
define weak dso_local void @_ZThn16_N10TextEditor16TextEditorWidgetD1Ev() #0 {
  call void @abort()
  ret void
}

; Function Attrs: noinline optnone uwtable
define weak dso_local void @_ZThn16_N10TextEditor17TabSettingsWidgetD0Ev() #0 {
  call void @abort()
  ret void
}

; Function Attrs: noinline optnone uwtable
define weak dso_local void @_ZThn16_N10TextEditor17TabSettingsWidgetD1Ev() #0 {
  call void @abort()
  ret void
}

; Function Attrs: noinline optnone uwtable
define weak dso_local void @_ZThn16_N10TextEditor22BehaviorSettingsWidgetD0Ev() #0 {
  call void @abort()
  ret void
}

; Function Attrs: noinline optnone uwtable
define weak dso_local void @_ZThn16_N10TextEditor22BehaviorSettingsWidgetD1Ev() #0 {
  call void @abort()
  ret void
}

; Function Attrs: noinline optnone uwtable
define weak dso_local void @_ZThn16_N10TextEditor23CodeStyleSelectorWidgetD0Ev() #0 {
  call void @abort()
  ret void
}

; Function Attrs: noinline optnone uwtable
define weak dso_local void @_ZThn16_N10TextEditor23CodeStyleSelectorWidgetD1Ev() #0 {
  call void @abort()
  ret void
}

; Function Attrs: noinline optnone uwtable
define weak dso_local void @_ZThn16_N10TextEditor8Internal15ColorSchemeEditD0Ev() #0 {
  call void @abort()
  ret void
}

; Function Attrs: noinline optnone uwtable
define weak dso_local void @_ZThn16_N10TextEditor8Internal15ColorSchemeEditD1Ev() #0 {
  call void @abort()
  ret void
}

; Function Attrs: noinline optnone uwtable
define weak dso_local void @_ZThn16_N11QmlJSEditor8Internal19ComponentNameDialogD0Ev() #0 {
  call void @abort()
  ret void
}

; Function Attrs: noinline optnone uwtable
define weak dso_local void @_ZThn16_N11QmlJSEditor8Internal19ComponentNameDialogD1Ev() #0 {
  call void @abort()
  ret void
}

; Function Attrs: noinline optnone uwtable
define weak dso_local void @_ZThn16_N15ExtensionSystem15PluginErrorViewD0Ev() #0 {
  call void @abort()
  ret void
}

; Function Attrs: noinline optnone uwtable
define weak dso_local void @_ZThn16_N15ExtensionSystem15PluginErrorViewD1Ev() #0 {
  call void @abort()
  ret void
}

; Function Attrs: noinline optnone uwtable
define weak dso_local void @_ZThn16_N15ExtensionSystem17PluginDetailsViewD0Ev() #0 {
  call void @abort()
  ret void
}

; Function Attrs: noinline optnone uwtable
define weak dso_local void @_ZThn16_N15ExtensionSystem17PluginDetailsViewD1Ev() #0 {
  call void @abort()
  ret void
}

; Function Attrs: noinline optnone uwtable
define weak dso_local void @_ZThn16_N15ExtensionSystem19PluginErrorOverviewD0Ev() #0 {
  call void @abort()
  ret void
}

; Function Attrs: noinline optnone uwtable
define weak dso_local void @_ZThn16_N15ExtensionSystem19PluginErrorOverviewD1Ev() #0 {
  call void @abort()
  ret void
}

; Function Attrs: noinline optnone uwtable
define weak dso_local void @_ZThn16_N15ProjectExplorer8Internal16DeviceTestDialogD0Ev() #0 {
  call void @abort()
  ret void
}

; Function Attrs: noinline optnone uwtable
define weak dso_local void @_ZThn16_N15ProjectExplorer8Internal16DeviceTestDialogD1Ev() #0 {
  call void @abort()
  ret void
}

; Function Attrs: noinline optnone uwtable
define weak dso_local void @_ZThn16_N15ProjectExplorer8Internal17ProjectWizardPageD0Ev() #0 {
  call void @abort()
  ret void
}

; Function Attrs: noinline optnone uwtable
define weak dso_local void @_ZThn16_N15ProjectExplorer8Internal17ProjectWizardPageD1Ev() #0 {
  call void @abort()
  ret void
}

; Function Attrs: noinline optnone uwtable
define weak dso_local void @_ZThn16_N15ProjectExplorer8Internal20DeviceSettingsWidgetD0Ev() #0 {
  call void @abort()
  ret void
}

; Function Attrs: noinline optnone uwtable
define weak dso_local void @_ZThn16_N15ProjectExplorer8Internal20DeviceSettingsWidgetD1Ev() #0 {
  call void @abort()
  ret void
}

; Function Attrs: noinline optnone uwtable
define weak dso_local void @_ZThn16_N15ProjectExplorer8Internal24CustomParserConfigDialogD0Ev() #0 {
  call void @abort()
  ret void
}

; Function Attrs: noinline optnone uwtable
define weak dso_local void @_ZThn16_N15ProjectExplorer8Internal24CustomParserConfigDialogD1Ev() #0 {
  call void @abort()
  ret void
}

; Function Attrs: noinline optnone uwtable
define weak dso_local void @_ZThn16_N15ProjectExplorer8Internal28DeviceFactorySelectionDialogD0Ev() #0 {
  call void @abort()
  ret void
}

; Function Attrs: noinline optnone uwtable
define weak dso_local void @_ZThn16_N15ProjectExplorer8Internal28DeviceFactorySelectionDialogD1Ev() #0 {
  call void @abort()
  ret void
}

; Function Attrs: noinline optnone uwtable
define weak dso_local void @_ZThn16_N20FilePropertiesDialogD0Ev() #0 {
  call void @abort()
  ret void
}

; Function Attrs: noinline optnone uwtable
define weak dso_local void @_ZThn16_N20FilePropertiesDialogD1Ev() #0 {
  call void @abort()
  ret void
}

; Function Attrs: noinline optnone uwtable
define weak dso_local void @_ZThn16_N4Core19ReadOnlyFilesDialogD0Ev() #0 {
  call void @abort()
  ret void
}

; Function Attrs: noinline optnone uwtable
define weak dso_local void @_ZThn16_N4Core19ReadOnlyFilesDialogD1Ev() #0 {
  call void @abort()
  ret void
}

; Function Attrs: noinline optnone uwtable
define weak dso_local void @_ZThn16_N4Core22FindToolBarPlaceHolderD0Ev() #0 {
  call void @abort()
  ret void
}

; Function Attrs: noinline optnone uwtable
define weak dso_local void @_ZThn16_N4Core22FindToolBarPlaceHolderD1Ev() #0 {
  call void @abort()
  ret void
}

; Function Attrs: noinline optnone uwtable
define weak dso_local void @_ZThn16_N4Core24EditorManagerPlaceHolderD0Ev() #0 {
  call void @abort()
  ret void
}

; Function Attrs: noinline optnone uwtable
define weak dso_local void @_ZThn16_N4Core24EditorManagerPlaceHolderD1Ev() #0 {
  call void @abort()
  ret void
}

; Function Attrs: noinline optnone uwtable
define weak dso_local void @_ZThn16_N4Core8Internal14AddToVcsDialogD0Ev() #0 {
  call void @abort()
  ret void
}

; Function Attrs: noinline optnone uwtable
define weak dso_local void @_ZThn16_N4Core8Internal14AddToVcsDialogD1Ev() #0 {
  call void @abort()
  ret void
}

; Function Attrs: noinline optnone uwtable
define weak dso_local void @_ZThn16_N4Core8Internal9NewDialogD0Ev() #0 {
  call void @abort()
  ret void
}

; Function Attrs: noinline optnone uwtable
define weak dso_local void @_ZThn16_N4Core8Internal9NewDialogD1Ev() #0 {
  call void @abort()
  ret void
}

; Function Attrs: noinline optnone uwtable
define weak dso_local void @_ZThn16_N4QSsh20SshKeyCreationDialogD0Ev() #0 {
  call void @abort()
  ret void
}

; Function Attrs: noinline optnone uwtable
define weak dso_local void @_ZThn16_N4QSsh20SshKeyCreationDialogD1Ev() #0 {
  call void @abort()
  ret void
}

; Function Attrs: noinline optnone uwtable
define weak dso_local void @_ZThn16_N7VcsBase11CleanDialogD0Ev() #0 {
  call void @abort()
  ret void
}

; Function Attrs: noinline optnone uwtable
define weak dso_local void @_ZThn16_N7VcsBase11CleanDialogD1Ev() #0 {
  call void @abort()
  ret void
}

; Function Attrs: noinline optnone uwtable
define weak dso_local void @_ZThn16_N7VcsBase18SubmitEditorWidgetD0Ev() #0 {
  call void @abort()
  ret void
}

; Function Attrs: noinline optnone uwtable
define weak dso_local void @_ZThn16_N7VcsBase18SubmitEditorWidgetD1Ev() #0 {
  call void @abort()
  ret void
}

; Function Attrs: noinline optnone uwtable
define weak dso_local void @_ZThn16_N7VcsBase8Internal14NickNameDialogD0Ev() #0 {
  call void @abort()
  ret void
}

; Function Attrs: noinline optnone uwtable
define weak dso_local void @_ZThn16_N7VcsBase8Internal14NickNameDialogD1Ev() #0 {
  call void @abort()
  ret void
}

; Function Attrs: noinline optnone uwtable
define weak dso_local void @_ZThn16_N7VcsBase8Internal20CommonSettingsWidgetD0Ev() #0 {
  call void @abort()
  ret void
}

; Function Attrs: noinline optnone uwtable
define weak dso_local void @_ZThn16_N7VcsBase8Internal20CommonSettingsWidgetD1Ev() #0 {
  call void @abort()
  ret void
}

; Function Attrs: noinline optnone uwtable
define weak dso_local void @_ZThn16_N8CppTools28ClangDiagnosticConfigsWidgetD0Ev() #0 {
  call void @abort()
  ret void
}

; Function Attrs: noinline optnone uwtable
define weak dso_local void @_ZThn16_N8CppTools28ClangDiagnosticConfigsWidgetD1Ev() #0 {
  call void @abort()
  ret void
}

; Function Attrs: noinline optnone uwtable
define weak dso_local void @_ZThn16_N8CppTools8Internal29CppCodeStylePreferencesWidgetD0Ev() #0 {
  call void @abort()
  ret void
}

; Function Attrs: noinline optnone uwtable
define weak dso_local void @_ZThn16_N8CppTools8Internal29CppCodeStylePreferencesWidgetD1Ev() #0 {
  call void @abort()
  ret void
}

; Function Attrs: noinline optnone uwtable
define weak dso_local void @_ZThn16_N8Debugger8Internal17SymbolPathsDialogD0Ev() #0 {
  call void @abort()
  ret void
}

; Function Attrs: noinline optnone uwtable
define weak dso_local void @_ZThn16_N8Debugger8Internal17SymbolPathsDialogD1Ev() #0 {
  call void @abort()
  ret void
}

; Function Attrs: noinline optnone uwtable
define weak dso_local void @_ZThn16_N9CppEditor8Internal21CppPreProcessorDialogD0Ev() #0 {
  call void @abort()
  ret void
}

; Function Attrs: noinline optnone uwtable
define weak dso_local void @_ZThn16_N9CppEditor8Internal21CppPreProcessorDialogD1Ev() #0 {
  call void @abort()
  ret void
}

; Function Attrs: noinline optnone uwtable
define weak dso_local void @_ZThn16_N9CppEditor8Internal25CppQuickFixSettingsWidgetD0Ev() #0 {
  call void @abort()
  ret void
}

; Function Attrs: noinline optnone uwtable
define weak dso_local void @_ZThn16_N9CppEditor8Internal25CppQuickFixSettingsWidgetD1Ev() #0 {
  call void @abort()
  ret void
}

; Function Attrs: noinline optnone uwtable
define weak dso_local void @_ZThn16_N9CppEditor8Internal27CppCodeModelInspectorDialogD0Ev() #0 {
  call void @abort()
  ret void
}

; Function Attrs: noinline optnone uwtable
define weak dso_local void @_ZThn16_N9CppEditor8Internal27CppCodeModelInspectorDialogD1Ev() #0 {
  call void @abort()
  ret void
}

; Function Attrs: noinline optnone uwtable
define weak dso_local void @_ZThn16_N9CppEditor8Internal32CppQuickFixProjectSettingsWidgetD0Ev() #0 {
  call void @abort()
  ret void
}

; Function Attrs: noinline optnone uwtable
define weak dso_local void @_ZThn16_N9CppEditor8Internal32CppQuickFixProjectSettingsWidgetD1Ev() #0 {
  call void @abort()
  ret void
}

; Function Attrs: noinline optnone uwtable
define weak dso_local void @_ZN10TextEditor8Internal16TextEditorPlugin16lineNumberFilterEv() #0 {
  call void @abort()
  ret void
}

; Function Attrs: noinline optnone uwtable
define weak dso_local void @_ZN10TextEditor8Internal16TextEditorPlugin8instanceEv() #0 {
  call void @abort()
  ret void
}

; Function Attrs: noinline optnone uwtable
define weak dso_local void @_ZN4Core8Internal10CorePlugin8instanceEv() #0 {
  call void @abort()
  ret void
}

; Function Attrs: noinline optnone uwtable
define weak dso_local void @_ZN7VcsBase8Internal9VcsPlugin13nickNameModelEv() #0 {
  call void @abort()
  ret void
}

; Function Attrs: noinline optnone uwtable
define weak dso_local void @_ZN7VcsBase8Internal9VcsPlugin15settingsChangedERKNS0_17CommonVcsSettingsE() #0 {
  call void @abort()
  ret void
}

; Function Attrs: noinline optnone uwtable
define weak dso_local void @_ZN7VcsBase8Internal9VcsPlugin16staticMetaObjectE() #0 {
  call void @abort()
  ret void
}

; Function Attrs: noinline optnone uwtable
define weak dso_local void @_ZN7VcsBase8Internal9VcsPlugin24submitEditorAboutToCloseEPNS_19VcsBaseSubmitEditorEPb() #0 {
  call void @abort()
  ret void
}

; Function Attrs: noinline optnone uwtable
define weak dso_local void @_ZN7VcsBase8Internal9VcsPlugin8instanceEv() #0 {
  call void @abort()
  ret void
}

; Function Attrs: noinline optnone uwtable
define weak dso_local void @_ZN8CppTools27correspondingHeaderOrSourceERK7QStringPbNS_10CacheUsageE() #0 {
  call void @abort()
  ret void
}

; Function Attrs: noinline optnone uwtable
define weak dso_local void @_ZN8CppTools8Internal14CppToolsPlugin13usePragmaOnceEv() #0 {
  call void @abort()
  ret void
}

; Function Attrs: noinline optnone uwtable
define weak dso_local void @_ZN8CppTools8Internal14CppToolsPlugin17codeModelSettingsEv() #0 {
  call void @abort()
  ret void
}

; Function Attrs: noinline optnone uwtable
define weak dso_local void @_ZN8CppTools8Internal14CppToolsPlugin8instanceEv() #0 {
  call void @abort()
  ret void
}

; Function Attrs: noinline optnone uwtable
define weak dso_local void @_ZN9CppEditor8Internal15CppEditorPlugin16staticMetaObjectE() #0 {
  call void @abort()
  ret void
}

; Function Attrs: noinline optnone uwtable
define weak dso_local void @_ZN9CppEditor8Internal15CppEditorPlugin21outlineSortingChangedEb() #0 {
  call void @abort()
  ret void
}

; Function Attrs: noinline optnone uwtable
define weak dso_local void @_ZN9CppEditor8Internal15CppEditorPlugin22typeHierarchyRequestedEv() #0 {
  call void @abort()
  ret void
}

; Function Attrs: noinline optnone uwtable
define weak dso_local void @_ZN9CppEditor8Internal15CppEditorPlugin25includeHierarchyRequestedEv() #0 {
  call void @abort()
  ret void
}

; Function Attrs: noinline optnone uwtable
define weak dso_local void @_ZN9CppEditor8Internal15CppEditorPlugin8instanceEv() #0 {
  call void @abort()
  ret void
}

; Function Attrs: noinline optnone uwtable
define weak dso_local void @_ZNK7VcsBase8Internal9VcsPlugin8settingsEv() #0 {
  call void @abort()
  ret void
}

; Function Attrs: noinline optnone uwtable
define weak dso_local void @_ZNK9CppEditor8Internal15CppEditorPlugin16quickFixProviderEv() #0 {
  call void @abort()
  ret void
}

; Function Attrs: noinline optnone uwtable
define weak dso_local void @_ZN15ProjectExplorer21ProjectExplorerPlugin15fileListChangedEv() #0 {
  call void @abort()
  ret void
}

; Function Attrs: noinline optnone uwtable
define weak dso_local void @_ZN15ProjectExplorer21ProjectExplorerPlugin15settingsChangedEv() #0 {
  call void @abort()
  ret void
}

; Function Attrs: noinline optnone uwtable
define weak dso_local void @_ZN15ProjectExplorer21ProjectExplorerPlugin16staticMetaObjectE() #0 {
  call void @abort()
  ret void
}

; Function Attrs: noinline optnone uwtable
define weak dso_local void @_ZN15ProjectExplorer21ProjectExplorerPlugin17runActionsUpdatedEv() #0 {
  call void @abort()
  ret void
}

; Function Attrs: noinline optnone uwtable
define weak dso_local void @_ZN15ProjectExplorer21ProjectExplorerPlugin20customParsersChangedEv() #0 {
  call void @abort()
  ret void
}

; Function Attrs: noinline optnone uwtable
define weak dso_local void @_ZN15ProjectExplorer21ProjectExplorerPlugin21recentProjectsChangedEv() #0 {
  call void @abort()
  ret void
}

; Function Attrs: noinline optnone uwtable
define weak dso_local void @_ZN15ProjectExplorer21ProjectExplorerPlugin22finishedInitializationEv() #0 {
  call void @abort()
  ret void
}

; Function Attrs: noinline optnone uwtable
define weak dso_local void @_ZN10TextEditor12TextDocument10autoIndentERK11QTextCursor5QChari() #0 {
  call void @abort()
  ret void
}

; Function Attrs: noinline optnone uwtable
define weak dso_local void @_ZN10TextEditor12TextDocument10removeMarkEPNS_8TextMarkE() #0 {
  call void @abort()
  ret void
}

; Function Attrs: noinline optnone uwtable
define weak dso_local void @_ZN10TextEditor12TextDocument10updateMarkEPNS_8TextMarkE() #0 {
  call void @abort()
  ret void
}

; Function Attrs: noinline optnone uwtable
define weak dso_local void @_ZN10TextEditor12TextDocument11setContentsERK10QByteArray() #0 {
  call void @abort()
  ret void
}

; Function Attrs: noinline optnone uwtable
define weak dso_local void @_ZN10TextEditor12TextDocument11setFilePathERKN5Utils8FilePathE() #0 {
  call void @abort()
  ret void
}

; Function Attrs: noinline optnone uwtable
define weak dso_local void @_ZN10TextEditor12TextDocument11setIndenterEPNS_8IndenterE() #0 {
  call void @abort()
  ret void
}

; Function Attrs: noinline optnone uwtable
define weak dso_local void @_ZN10TextEditor12TextDocument12setPlainTextERK7QString() #0 {
  call void @abort()
  ret void
}

; Function Attrs: noinline optnone uwtable
define weak dso_local void @_ZN10TextEditor12TextDocument16checkPermissionsEv() #0 {
  call void @abort()
  ret void
}

; Function Attrs: noinline optnone uwtable
define weak dso_local void @_ZN10TextEditor12TextDocument17applyFontSettingsEv() #0 {
  call void @abort()
  ret void
}

; Function Attrs: noinline optnone uwtable
define weak dso_local void @_ZN10TextEditor12TextDocument18setStorageSettingsERKNS_15StorageSettingsE() #0 {
  call void @abort()
  ret void
}

; Function Attrs: noinline optnone uwtable
define weak dso_local void @_ZN10TextEditor12TextDocument20setSyntaxHighlighterEPNS_17SyntaxHighlighterE() #0 {
  call void @abort()
  ret void
}

; Function Attrs: noinline optnone uwtable
define weak dso_local void @_ZN10TextEditor12TextDocument21triggerPendingUpdatesEv() #0 {
  call void @abort()
  ret void
}

; Function Attrs: noinline optnone uwtable
define weak dso_local void @_ZN10TextEditor12TextDocument23textDocumentForFilePathERKN5Utils8FilePathE() #0 {
  call void @abort()
  ret void
}

; Function Attrs: noinline optnone uwtable
define weak dso_local void @_ZN10TextEditor12TextDocument24removeMarkFromMarksCacheEPNS_8TextMarkE() #0 {
  call void @abort()
  ret void
}

; Function Attrs: noinline optnone uwtable
define weak dso_local void @_ZN10TextEditor12TextDocument25setFallbackSaveAsFileNameERK7QString() #0 {
  call void @abort()
  ret void
}

; Function Attrs: noinline optnone uwtable
define weak dso_local void @_ZN10TextEditor12TextDocument26openedTextDocumentContentsEv() #0 {
  call void @abort()
  ret void
}

; Function Attrs: noinline optnone uwtable
define weak dso_local void @_ZN10TextEditor12TextDocument27openedTextDocumentEncodingsEv() #0 {
  call void @abort()
  ret void
}

; Function Attrs: noinline optnone uwtable
define weak dso_local void @_ZN10TextEditor12TextDocument34createDiffAgainstCurrentFileActionEP7QObjectRKNSt3__18functionIFN5Utils8FilePathEvEEE() #0 {
  call void @abort()
  ret void
}

; Function Attrs: noinline optnone uwtable
define weak dso_local void @_ZN10TextEditor12TextDocument4openEP7QStringRKS1_S4_() #0 {
  call void @abort()
  ret void
}

; Function Attrs: noinline optnone uwtable
define weak dso_local void @_ZN10TextEditor12TextDocument4saveEP7QStringRKS1_b() #0 {
  call void @abort()
  ret void
}

; Function Attrs: noinline optnone uwtable
define weak dso_local void @_ZN10TextEditor12TextDocument6reloadEP7QString() #0 {
  call void @abort()
  ret void
}

; Function Attrs: noinline optnone uwtable
define weak dso_local void @_ZN10TextEditor12TextDocument6reloadEP7QStringN4Core9IDocument10ReloadFlagENS4_10ChangeTypeE() #0 {
  call void @abort()
  ret void
}

; Function Attrs: noinline optnone uwtable
define weak dso_local void @_ZN10TextEditor12TextDocument6reloadEP7QStringRKS1_() #0 {
  call void @abort()
  ret void
}

; Function Attrs: noinline optnone uwtable
define weak dso_local void @_ZN10TextEditor12TextDocument7addMarkEPNS_8TextMarkE() #0 {
  call void @abort()
  ret void
}

; Function Attrs: noinline optnone uwtable
define weak dso_local void @_ZN10TextEditor12TextDocument8moveMarkEPNS_8TextMarkEi() #0 {
  call void @abort()
  ret void
}

; Function Attrs: noinline optnone uwtable
define weak dso_local void @_ZN10TextEditor12TextDocumentC1EN5Utils2IdE() #0 {
  call void @abort()
  ret void
}

; Function Attrs: noinline optnone uwtable
define weak dso_local void @_ZN10TextEditor12TextDocumentC2EN5Utils2IdE() #0 {
  call void @abort()
  ret void
}

; Function Attrs: noinline optnone uwtable
define weak dso_local void @_ZN10TextEditor12TextDocumentD0Ev() #0 {
  call void @abort()
  ret void
}

; Function Attrs: noinline optnone uwtable
define weak dso_local void @_ZN10TextEditor12TextDocumentD1Ev() #0 {
  call void @abort()
  ret void
}

; Function Attrs: noinline optnone uwtable
define weak dso_local void @_ZN10TextEditor12TextDocumentD2Ev() #0 {
  call void @abort()
  ret void
}

; Function Attrs: noinline optnone uwtable
define weak dso_local void @_ZN10TextEditor19SemanticHighlighter35clearExtraAdditionalFormatsUntilEndEPNS_17SyntaxHighlighterERK7QFutureINS_18HighlightingResultEE() #0 {
  call void @abort()
  ret void
}

; Function Attrs: noinline optnone uwtable
define weak dso_local void @_ZN10TextEditor19SemanticHighlighter38incrementalApplyExtraAdditionalFormatsEPNS_17SyntaxHighlighterERK7QFutureINS_18HighlightingResultEEiiRK5QHashIi15QTextCharFormatERKNSt3__18functionIFK5QListINSD_4pairIS4_10QTextBlockEEERKS4_RKSH_EEE() #0 {
  call void @abort()
  ret void
}

; Function Attrs: noinline optnone uwtable
define weak dso_local void @_ZNK10TextEditor12TextDocument10isModifiedEv() #0 {
  call void @abort()
  ret void
}

; Function Attrs: noinline optnone uwtable
define weak dso_local void @_ZNK10TextEditor12TextDocument11characterAtEi() #0 {
  call void @abort()
  ret void
}

; Function Attrs: noinline optnone uwtable
define weak dso_local void @_ZNK10TextEditor12TextDocument11tabSettingsEv() #0 {
  call void @abort()
  ret void
}

; Function Attrs: noinline optnone uwtable
define weak dso_local void @_ZNK10TextEditor12TextDocument12fontSettingsEv() #0 {
  call void @abort()
  ret void
}

; Function Attrs: noinline optnone uwtable
define weak dso_local void @_ZNK10TextEditor12TextDocument14isFileReadOnlyEv() #0 {
  call void @abort()
  ret void
}

; Function Attrs: noinline optnone uwtable
define weak dso_local void @_ZNK10TextEditor12TextDocument14shouldAutoSaveEv() #0 {
  call void @abort()
  ret void
}

; Function Attrs: noinline optnone uwtable
define weak dso_local void @_ZNK10TextEditor12TextDocument15isSaveAsAllowedEv() #0 {
  call void @abort()
  ret void
}

; Function Attrs: noinline optnone uwtable
define weak dso_local void @_ZNK10TextEditor12TextDocument15storageSettingsEv() #0 {
  call void @abort()
  ret void
}

; Function Attrs: noinline optnone uwtable
define weak dso_local void @_ZNK10TextEditor12TextDocument17syntaxHighlighterEv() #0 {
  call void @abort()
  ret void
}

; Function Attrs: noinline optnone uwtable
define weak dso_local void @_ZNK10TextEditor12TextDocument18fallbackSaveAsPathEv() #0 {
  call void @abort()
  ret void
}

; Function Attrs: noinline optnone uwtable
define weak dso_local void @_ZNK10TextEditor12TextDocument22fallbackSaveAsFileNameEv() #0 {
  call void @abort()
  ret void
}

; Function Attrs: noinline optnone uwtable
define weak dso_local void @_ZNK10TextEditor12TextDocument22quickFixAssistProviderEv() #0 {
  call void @abort()
  ret void
}

; Function Attrs: noinline optnone uwtable
define weak dso_local void @_ZNK10TextEditor12TextDocument24completionAssistProviderEv() #0 {
  call void @abort()
  ret void
}

; Function Attrs: noinline optnone uwtable
define weak dso_local void @_ZNK10TextEditor12TextDocument26functionHintAssistProviderEv() #0 {
  call void @abort()
  ret void
}

; Function Attrs: noinline optnone uwtable
define weak dso_local void @_ZNK10TextEditor12TextDocument5marksEv() #0 {
  call void @abort()
  ret void
}

; Function Attrs: noinline optnone uwtable
define weak dso_local void @_ZNK10TextEditor12TextDocument6textAtEii() #0 {
  call void @abort()
  ret void
}

; Function Attrs: noinline optnone uwtable
define weak dso_local void @_ZNK10TextEditor12TextDocument8contentsEv() #0 {
  call void @abort()
  ret void
}

; Function Attrs: noinline optnone uwtable
define weak dso_local void @_ZNK10TextEditor12TextDocument8documentEv() #0 {
  call void @abort()
  ret void
}

; Function Attrs: noinline optnone uwtable
define weak dso_local void @_ZNK10TextEditor12TextDocument8indenterEv() #0 {
  call void @abort()
  ret void
}

; Function Attrs: noinline optnone uwtable
define weak dso_local void @_ZNK10TextEditor12TextDocument9plainTextEv() #0 {
  call void @abort()
  ret void
}

; Function Attrs: noinline optnone uwtable
define weak dso_local void @_ZNK10TextEditor7Command10executableEv() #0 {
  call void @abort()
  ret void
}

; Function Attrs: noinline optnone uwtable
define weak dso_local void @_ZNK10TextEditor7Command10processingEv() #0 {
  call void @abort()
  ret void
}

; Function Attrs: noinline optnone uwtable
define weak dso_local void @_ZNK10TextEditor7Command11returnsCRLFEv() #0 {
  call void @abort()
  ret void
}

; Function Attrs: noinline optnone uwtable
define weak dso_local void @_ZNK10TextEditor7Command15pipeAddsNewlineEv() #0 {
  call void @abort()
  ret void
}

; Function Attrs: noinline optnone uwtable
define weak dso_local void @_ZNK10TextEditor7Command7optionsEv() #0 {
  call void @abort()
  ret void
}

; Function Attrs: noinline optnone uwtable
define weak dso_local void @_ZTVN4Core16BaseTextDocumentE() #0 {
  call void @abort()
  ret void
}

attributes #0 = { noinline optnone uwtable "correctly-rounded-divide-sqrt-fp-math"="false" "disable-tail-calls"="false" "frame-pointer"="none" "less-precise-fpmad"="false" "min-legal-vector-width"="0" "no-infs-fp-math"="false" "no-jump-tables"="false" "no-nans-fp-math"="false" "no-signed-zeros-fp-math"="false" "no-trapping-math"="true" "stack-protector-buffer-size"="8" "target-cpu"="x86-64" "target-features"="+cx8,+fxsr,+mmx,+sse,+sse2,+x87" "unsafe-fp-math"="false" "use-soft-float"="false" }
attributes #1 = { "correctly-rounded-divide-sqrt-fp-math"="false" "disable-tail-calls"="false" "frame-pointer"="none" "less-precise-fpmad"="false" "no-infs-fp-math"="false" "no-nans-fp-math"="false" "no-signed-zeros-fp-math"="false" "no-trapping-math"="true" "stack-protector-buffer-size"="8" "target-cpu"="x86-64" "target-features"="+cx8,+fxsr,+mmx,+sse,+sse2,+x87" "unsafe-fp-math"="false" "use-soft-float"="false" }
attributes #2 = { noinline nounwind optnone uwtable "correctly-rounded-divide-sqrt-fp-math"="false" "disable-tail-calls"="false" "frame-pointer"="none" "less-precise-fpmad"="false" "min-legal-vector-width"="0" "no-infs-fp-math"="false" "no-jump-tables"="false" "no-nans-fp-math"="false" "no-signed-zeros-fp-math"="false" "no-trapping-math"="true" "stack-protector-buffer-size"="8" "target-cpu"="x86-64" "target-features"="+cx8,+fxsr,+mmx,+sse,+sse2,+x87" "unsafe-fp-math"="false" "use-soft-float"="false" }

!llvm.module.flags = !{!0, !1}
!llvm.ident = !{!2}

!0 = !{i32 1, !"wchar_size", i32 2}
!1 = !{i32 7, !"PIC Level", i32 2}
!2 = !{!"clang version 11.0.0 (git://code.qt.io/clang/llvm-project.git e43a39a3ed2ec0a05638956cdebfd2f7cf164692)"}
